
main:     file format elf32-littleriscv
main
architecture: riscv:rv32, flags 0x00000112:
EXEC_P, HAS_SYMS, D_PAGED
start address 0x00000000

Program Header:
0x70000003 off    0x0000500f vaddr 0x00000000 paddr 0x00000000 align 2**0
         filesz 0x00000064 memsz 0x00000000 flags r--
    LOAD off    0x00001000 vaddr 0x00000000 paddr 0x00000000 align 2**12
         filesz 0x00000284 memsz 0x00000284 flags r-x
    LOAD off    0x00002000 vaddr 0x00010000 paddr 0x20000000 align 2**12
         filesz 0x0000227c memsz 0x0000227c flags r-x
    LOAD off    0x00000000 vaddr 0x20100000 paddr 0x20100000 align 2**12
         filesz 0x00000000 memsz 0x00001000 flags rw-
    LOAD off    0x00005000 vaddr 0x00020000 paddr 0x20101000 align 2**12
         filesz 0x00000000 memsz 0x00001000 flags rw-
   STACK off    0x00000000 vaddr 0x00000000 paddr 0x00000000 align 2**4
         filesz 0x00000000 memsz 0x00000000 flags rw-

Sections:
Idx Name          Size      VMA       LMA       File off  Algn
  0 .text0        00000284  00000000  00000000  00001000  2**2
                  CONTENTS, ALLOC, LOAD, READONLY, CODE
  1 .text1        00000278  00010000  20000000  00002000  2**2
                  CONTENTS, ALLOC, LOAD, READONLY, CODE
  2 .rodata       00002004  00010278  20000278  00002278  2**2
                  CONTENTS, ALLOC, LOAD, READONLY, DATA
  3 _test         00001000  20100000  20100000  00005000  2**0
                  ALLOC
  4 .data         00000000  00020000  20101000  00005000  2**0
                  CONTENTS, ALLOC, LOAD, DATA
  5 .bss          00000000  00020000  20101000  00005000  2**0
                  ALLOC
  6 .stack        00001000  00020000  20101000  00005000  2**0
                  ALLOC
  7 .comment      0000000f  00000000  00000000  00005000  2**0
                  CONTENTS, READONLY
  8 .riscv.attributes 00000064  00000000  00000000  0000500f  2**0
                  CONTENTS, READONLY
SYMBOL TABLE:
00000000 l    d  .text0	00000000 .text0
00010000 l    d  .text1	00000000 .text1
00010278 l    d  .rodata	00000000 .rodata
20100000 l    d  _test	00000000 _test
00020000 l    d  .data	00000000 .data
00020000 l    d  .bss	00000000 .bss
00020000 l    d  .stack	00000000 .stack
00000000 l    d  .comment	00000000 .comment
00000000 l    d  .riscv.attributes	00000000 .riscv.attributes
00000000 l    df *ABS*	00000000 setup.o
00000000 l       .text0	00000000 $xrv32i2p1_m2p0_f2p2_zicsr2p0_zmmul1p0_zve32x1p0_zve64x1p0_zvl32b1p0_zvl64b1p0
00000084 l       .text0	00000000 init_bss
00000108 l       .text0	00000000 fill_block
0000009c l       .text0	00000000 init_sbss
000000b4 l       .text0	00000000 write_stack_pattern
000000cc l       .text0	00000000 init_stack
000000d4 l       .text0	00000000 write_test_pattern
000000ec l       .text0	00000000 SystemInit
000000f4 l       .text0	00000000 SystemExit
00000104 l       .text0	00000000 dead_loop
00000118 l       .text0	00000000 fb_end
00000000 l    df *ABS*	00000000 boot.c
0000011c l       .text0	00000000 $xrv32i2p1_m2p0_f2p2_zicsr2p0_zmmul1p0_zve32x1p0_zve64x1p0_zvl32b1p0_zvl64b1p0
00000000 l    df *ABS*	00000000 isr.o
00010000 l       .text1	00000000 $xrv32i2p1_m2p0_f2p2_zicsr2p0_zmmul1p0_zve32x1p0_zve64x1p0_zvl32b1p0_zvl64b1p0
00000000 l    df *ABS*	00000000 main.c
00010108 l       .text1	00000000 $xrv32i2p1_m2p0_f2p2_zicsr2p0_zmmul1p0_zve32x1p0_zve64x1p0_zvl32b1p0_zvl64b1p0
20100000 g       _test	00000000 _test_start
20101000 g       *ABS*	00000000 __data_paddr_start
00020000 g       _test	00000000 __sbss_start
00020800 g       _test	00000000 _gp
20101000 g       _test	00000000 _test_end
00010000 g       .text1	00000000 _imem_start
00001000 g       *ABS*	00000000 _TEST_SIZE
20101000 g       *ABS*	00000000 __sdata_paddr_start
00020000 g       _test	00000000 __sdata_start
0001227c g       .rodata	00000000 __rodata_end
00010278 g       .rodata	00000000 input_array_size
0000011c g     F .text0	00000168 boot
00020000 g       .bss	00000000 __bss_end
0001027c g       .rodata	00000000 input_array_addr
00010184 g     F .text1	00000054 trap_handler
00020000 g       _test	00000000 __sbss_end
00000000 g       .text0	00000000 _start
00010278 g       .rodata	00000000 __rodata_start
00010108 g     F .text1	00000040 timer_interrupt_handler
00010148 g     F .text1	0000003c external_interrupt_handler
00020000 g       .data	00000000 __data_end
20000000 g       .rodata	00000000 _dram_i_start
00020000 g       .bss	00000000 __bss_start
00001000 g       *ABS*	00000000 _STACK_SIZE
0003fffc g       .stack	00000000 _sim_end
000101d8 g     F .text1	000000a0 main
00010000 g       .text1	00000000 trap_entry
00020000 g       .stack	00000000 _stack_end
00020000 g       _test	00000000 __sdata_end
2000227c g       .rodata	00000000 _dram_i_end
00021000 g       .stack	00000000 __stack
00040000 g       .stack	00000000 _end
00021000 g       .stack	00000000 _stack
00020000 g       .data	00000000 __data_start


Contents of section .text0:
 0000 93000000 13010000 93010000 13020000  ................
 0010 93020000 13030000 93030000 13040000  ................
 0020 93040000 13050000 93050000 13060000  ................
 0030 93060000 13070000 93070000 13080000  ................
 0040 93080000 13090000 93090000 130a0000  ................
 0050 930a0000 130b0000 930b0000 130c0000  ................
 0060 930c0000 130d0000 930d0000 130e0000  ................
 0070 930e0000 130f0000 930f0000 97010200  ................
 0080 93814178 17050200 1305c5f7 97050200  ..Ax............
 0090 938505f7 13060000 ef000007 17050200  ................
 00a0 130545f6 97050200 938585f5 13060000  ..E.............
 00b0 ef008005 17050200 1305c5f4 97150200  ................
 00c0 938505f4 13060000 ef000004 17110200  ................
 00d0 130141f3 17051020 1305c5f2 97151020  ..A.... ....... 
 00e0 938505f2 13060000 ef000002 ef000003  ................
 00f0 ef00810e 97020400 938282f0 1303f0ff  ................
 0100 23a06200 6f000000 63e8a500 2320c500  #.b.o...c...# ..
 0110 13054500 6ff05fff 67800000 130101fe  ..E.o._.g.......
 0120 232e1100 232c8100 13040102 b7070210  #...#,..........
 0130 2326f4fe 73600430 b71f0000 938f0f80  #&..s`.0........
 0140 73a04f30 8327c4fe 93870720 37070020  s.O0.'..... 7.. 
 0150 13070700 23a0e700 8327c4fe 93870730  ....#....'.....0
 0160 37070100 13070700 23a0e700 b7270020  7.......#....'. 
 0170 1387c727 b7070020 93870700 b307f740  ...'... .......@
 0180 13d72700 8327c4fe 93870740 13071700  ..'..'.....@....
 0190 23a0e700 8327c4fe 93870710 13071000  #....'..........
 01a0 23a0e700 73005010 8327c4fe 93870720  #...s.P..'..... 
 01b0 37171020 13070700 23a0e700 8327c4fe  7.. ....#....'..
 01c0 93870730 37070200 13070700 23a0e700  ...07.......#...
 01d0 b7070200 13870700 b7070200 93870700  ................
 01e0 b307f740 13d72700 8327c4fe 93870740  ...@..'..'.....@
 01f0 13071700 23a0e700 8327c4fe 93870710  ....#....'......
 0200 13071000 23a0e700 73005010 8327c4fe  ....#...s.P..'..
 0210 93870720 37171020 13070700 23a0e700  ... 7.. ....#...
 0220 8327c4fe 93870730 37070200 13070700  .'.....07.......
 0230 23a0e700 b7070200 13870700 b7070200  #...............
 0240 93870700 b307f740 13d72700 8327c4fe  .......@..'..'..
 0250 93870740 13071700 23a0e700 8327c4fe  ...@....#....'..
 0260 93870710 13071000 23a0e700 73005010  ........#...s.P.
 0270 13000000 8320c101 03248101 13010102  ..... ...$......
 0280 67800000                             g...            
Contents of section .text1:
 10000 130141f8 23201100 23222100 23243100  ..A.# ..#"!.#$1.
 10010 23264100 23285100 232a6100 232c7100  #&A.#(Q.#*a.#,q.
 10020 232e8100 23209102 2322a102 2324b102  #...# ..#"..#$..
 10030 2326c102 2328d102 232ae102 232cf102  #&..#(..#*..#,..
 10040 232e0103 23201105 23222105 23243105  #...# ..#"!.#$1.
 10050 23264105 23285105 232a6105 232c7105  #&A.#(Q.#*a.#,q.
 10060 232e8105 23209107 2322a107 2324b107  #...# ..#"..#$..
 10070 2326c107 2328d107 232ae107 232cf107  #&..#(..#*..#,..
 10080 ef004010 83200100 03214100 83218100  ..@.. ...!A..!..
 10090 0322c100 83220101 03234101 83238101  ."..."...#A..#..
 100a0 0324c101 83240102 03254102 83258102  .$...$...%A..%..
 100b0 0326c102 83260103 03274103 83278103  .&...&...'A..'..
 100c0 0328c103 83280104 03294104 83298104  .(...(...)A..)..
 100d0 032ac104 832a0105 032b4105 832b8105  .*...*...+A..+..
 100e0 032cc105 832c0106 032d4106 832d8106  .,...,...-A..-..
 100f0 032ec106 832e0107 032f4107 832f8107  ........./A../..
 10100 1301c107 73002030 130101fe 232e1100  ....s. 0....#...
 10110 232c8100 13040102 b7070110 2326f4fe  #,..........#&..
 10120 73600030 8327c4fe 93870710 23a00700  s`.0.'......#...
 10130 6ff01eed 13000000 8320c101 03248101  o........ ...$..
 10140 13010102 67800000 130101fe 232e1100  ....g.......#...
 10150 232c8100 13040102 b7070210 2326f4fe  #,..........#&..
 10160 73600030 8327c4fe 93870710 23a00700  s`.0.'......#...
 10170 13000000 8320c101 03248101 13010102  ..... ...$......
 10180 67800000 130101fe 232e1100 232c8100  g.......#...#,..
 10190 13040102 f3274034 2326f4fe 8327c4fe  .....'@4#&...'..
 101a0 93f70708 63840700 eff01ff6 0327c4fe  ....c........'..
 101b0 b7170000 93870780 b377f700 63840700  .........w..c...
 101c0 eff09ff8 13000000 8320c101 03248101  ......... ...$..
 101d0 13010102 67800000 130101fe 232e1100  ....g.......#...
 101e0 232c8100 13040102 b7070100 9387c727  #,.............'
 101f0 2324f4fe b7071020 93870700 2322f4fe  #$..... ....#"..
 10200 232604fe 6f00c004 8327c4fe 032784fe  #&..o....'...'..
 10210 b307f700 0327c4fe 832644fe 3387e600  .....'...&D.3...
 10220 b7060100 03a68627 8326c4fe b306d640  .......'.&.....@
 10230 d7f20600 87800702 5731005e d701111e  ........W1.^....
 10240 a7010702 8327c4fe 93878700 2326f4fe  .....'......#&..
 10250 0327c4fe b7070100 83a78727 e366f7fa  .'.........'.f..
 10260 93070000 13850700 8320c101 03248101  ......... ...$..
 10270 13010102 67800000                    ....g...        
Contents of section .rodata:
 10278 00200000 8d62c021 74caf5b7 ef18358e  . ...b.!t.....5.
 10288 7780d288 52341d10 89cf18bd b095d331  w...R4.........1
 10298 6758a3c8 89c7cf9c cbec87f2 af00d8ee  gX..............
 102a8 3796d949 6bd7a431 02ed58f4 8b5052db  7..Ik..1..X..PR.
 102b8 9fa29367 b15d0138 be0dd1e6 a0cbae7a  ...g.].8.......z
 102c8 88e6361a ac4ee1b0 ff2877eb 01dc7884  ..6..N...(w...x.
 102d8 5a79acfb 352c0624 30a97619 a53792cd  Zy..5,.$0.v..7..
 102e8 8c457292 000c9f61 67acf508 a63d7b28  .Er....ag....={(
 102f8 944d49eb 5c31bbbf 3771fe31 d6b77a66  .MI.\1..7q.1..zf
 10308 dce4c0db 0210da3b 1c905d09 569dd390  .......;..].V...
 10318 f7c91c4d eb9cae44 05e700a8 4f961fc7  ...M...D....O...
 10328 9348adf0 c55d84d1 6a233f6a 89802547  .H...]..j#?j..%G
 10338 f7f94e3f 0ed842ef 86986b65 1b964535  ..N?..B...ke..E5
 10348 8cb772d8 2aea3645 0763d7bd 28008e40  ..r.*.6E.c..(..@
 10358 75dd0b94 29790b49 b22b6a21 6cdd9c7c  u...)y.I.+j!l..|
 10368 afa18682 8641bc38 7356056f 41f5fdc1  .....A.8sV.oA...
 10378 02462e2c 0ba39a15 bbc164cf b64dbb9f  .F.,......d..M..
 10388 478303f5 667f2265 e0118ead 3413250d  G...f."e....4.%.
 10398 6e4c908d 6812905c 7fecfb57 21dac095  nL..h..\...W!...
 103a8 973d86d2 eed570dc c60a0662 ebc5b9ba  .=....p....b....
 103b8 9f660930 4ef67a05 bd83bceb 9d11a60e  .f.0N.z.........
 103c8 2e84384c 28f7e960 894ee50e 1a739ccf  ..8L(..`.N...s..
 103d8 88fbe4d4 d40c5faa 8020d1cf dd2d9bad  ......_.. ...-..
 103e8 ced27008 4bf83222 22ef72e5 bc9c85bb  ..p.K.2"".r.....
 103f8 dd9e02a6 13c022b3 cf5adeb5 1a0034f6  ......"..Z....4.
 10408 04b3f34d 90c4df81 93a60d9a 24916e21  ...M........$.n!
 10418 ec7e8753 40dd5e9c 5fe52c9b 490bd1a8  .~.S@.^._.,.I...
 10428 af4c6073 03ee5f0d a9a127ad 63dcd75c  .L`s.._...'.c..\
 10438 83269277 ba077aca d62a4b91 45e81fe5  .&.w..z..*K.E...
 10448 f4ce236a 0b30c958 1ad6af51 afc5130b  ..#j.0.X...Q....
 10458 0f69074c f6abb748 63065719 20bb3e41  .i.L...Hc.W. .>A
 10468 4c3ee72a 9f39ca3b 647419a6 027d0039  L>.*.9.;dt...}.9
 10478 18011cd4 fa5a5e4f 5e199470 59be6bae  .....Z^O^..pY.k.
 10488 bcd57a2d 7bcdb0c8 20111863 0b16c1be  ..z-{... ..c....
 10498 ec6ff890 119f8304 ffbf3c63 8ccc7527  .o........<c..u'
 104a8 a13880b5 4d1a8e96 039c084a c96f990a  .8..M......J.o..
 104b8 0e38df37 70dd7c68 d191f0c7 cc6dc712  .8.7p.|h.....m..
 104c8 2659adfa f061fb98 b3bcd8ff 036877a1  &Y...a.......hw.
 104d8 3fb9a638 743536cd 6dc7be6b e6dfc439  ?..8t56.m..k...9
 104e8 9337de3b ebcf0e41 5ad1f8a1 ad0523fa  .7.;...AZ.....#.
 104f8 4f3780d0 79e42298 001476e0 53aa1b25  O7..y."...v.S..%
 10508 ff111841 b17e808d 24c292d7 f735b550  ...A.~..$....5.P
 10518 803950f0 6acedbfe 6526040b 5e334740  .9P.j...e&..^3G@
 10528 22799fbd a67bdfa5 f2d777a4 d686b1b7  "y...{....w.....
 10538 f56cbae3 f97a92f6 fd4e4319 b35ae641  .l...z...NC..Z.A
 10548 1cfdbdcb bbd6dc73 df05e3a1 94f897d0  .......s........
 10558 53aa8d7a e310670e 12e951ae 8e1fa143  S..z..g...Q....C
 10568 50c4e450 f2b450bc f0e6df99 52a37d07  P..P..P.....R.}.
 10578 ec018801 d979e643 c35dd46c 73431610  .....y.C.].lsC..
 10588 7ff01364 47ba3fbc c4d17c5d 4d8d07cd  ...dG.?...|]M...
 10598 e785ae37 af83c8b0 bb873e5d 62bfeba5  ...7......>]b...
 105a8 3ce66b1a 787723c7 1300f679 91639bf7  <.k.xw#....y.c..
 105b8 af606e96 99208141 4135dc90 bc06107f  .`n.. .AA5......
 105c8 ddf3b4e5 78b0101e ce486f3f e2a08876  ....x....Ho?...v
 105d8 b3bbcc64 4ef43e35 5f5bc3ba edab64b3  ...dN.>5_[....d.
 105e8 114b946f 78fafeb9 1c8c96c4 4ecc8484  .K.ox.......N...
 105f8 eb73d746 0afe1e16 8fa54247 0f15e7f4  .s.F......BG....
 10608 06cd0699 25137fc1 1496401e 0cade404  ....%.....@.....
 10618 54ca79a0 3747b021 b8795c89 b1035386  T.y.7G.!.y\...S.
 10628 924ae90f 1b949d08 a26f7fd0 f95463cc  .J.......o...Tc.
 10638 360264ce 46df3e6d 1f66f8ac 5c854582  6.d.F.>m.f..\.E.
 10648 ed618d80 e220e2ef 60988b13 c9133d98  .a... ..`.....=.
 10658 3870712f 6554c706 ba00b153 b52e4f93  8pq/eT.....S..O.
 10668 d6ef3e4d 2d018afb e1646e86 2cde06be  ..>M-....dn.,...
 10678 02b13489 28a0db3e a48e5982 b583c20c  ..4.(..>..Y.....
 10688 6922b243 6cb84c1a 969294d3 468fae24  i".Cl.L.....F..$
 10698 1acd7ef3 dc731f96 e0213b9d b1cb0616  ..~..s...!;.....
 106a8 40c6e13f d7d5c927 9fbd33ef cad19fc8  @..?...'..3.....
 106b8 34521263 8c4ff43c 2220a02e d1e58963  4R.c.O.<" .....c
 106c8 2012d38a d9873da8 5a91fb08 f75a1a38   .....=.Z....Z.8
 106d8 0eea01ef bd8e78ab a28b0312 98af9501  ......x.........
 106e8 74ae8e74 aeac0ede 9d853a80 ede40ac8  t..t......:.....
 106f8 62462c9f d9ea49b2 ad6761db f49719b6  bF,...I..ga.....
 10708 cbd25b93 e1fa3c87 fee92f2d e2a18bb3  ..[...<.../-....
 10718 0c66d814 ecb29d54 11e8af75 5088a67a  .f.....T...uP..z
 10728 9d919efd 30ad977a 9539cd73 c5779ccc  ....0..z.9.s.w..
 10738 1d3f4246 b64b6e39 1ea40fa2 8bd2408e  .?BF.Kn9......@.
 10748 a7015e84 8ea4de46 ad7b249c 7a92568c  ..^....F.{$.z.V.
 10758 884825cc 157e1299 f9e2ff63 f061985d  .H%..~.....c.a.]
 10768 ed2171a2 543eb818 3d461d6a ef9c7eab  .!q.T>..=F.j..~.
 10778 8d30aa44 41cc9ced 2d7b3496 705658c8  .0.DA...-{4.pVX.
 10788 1f9f2761 f153b1fa ae6d69e7 0a9e14a0  ..'a.S...mi.....
 10798 18bbac16 d10d4655 789d522a 05f036d0  ......FUx.R*..6.
 107a8 dbc802d9 caeca472 5c08ba20 792147fc  .......r\.. y!G.
 107b8 f89c1bc3 9498b371 ee9bfa34 3278ab29  .......q...42x.)
 107c8 f4874bba 1636a4c8 385b508d afa4308b  ..K..6..8[P...0.
 107d8 2affe517 15c79a30 92cd0c23 df90c044  *......0...#...D
 107e8 15887c09 91e35cdd 3e84c04a ae8be0d7  ..|...\.>..J....
 107f8 98d70096 bd271270 0b573d2d e133865f  .....'.p.W=-.3._
 10808 3e7172f0 66680f6b 4e4f12e7 2667519a  >qr.fh.kNO..&gQ.
 10818 083eae67 9bf98cde 7ad04d01 109fcf94  .>.g....z.M.....
 10828 e8e3aba0 e13776ff a3e8db34 4bc64f3d  .....7v....4K.O=
 10838 560fbdf0 53370900 3775887c 88ebd10c  V...S7..7u.|....
 10848 b15a511b c2965e21 55d814d9 84dd99ff  .ZQ...^!U.......
 10858 a7bc93f1 e206061f 353c5f7c e6d9d926  ........5<_|...&
 10868 1b89407c e943ce5e 508a442e d5ab653e  ..@|.C.^P.D...e>
 10878 6a3cddfe 5209e43a 9a39f136 5bc578ec  j<..R..:.9.6[.x.
 10888 dcb05f8d 97a0a27e e8c511e4 32a7a449  .._....~....2..I
 10898 a5af0141 731e2d08 c4544216 827ff2c6  ...As.-..TB.....
 108a8 13ebd11e ce9372bd 7a4ebf24 83dd51b0  ......r.zN.$..Q.
 108b8 35e02292 24bc6bc9 7a5fb391 398e76fb  5.".$.k.z_..9.v.
 108c8 eeec0d09 9870c386 92e8d2c8 e701286b  .....p........(k
 108d8 1d23f84b 62918d72 a7a31ca5 91e6ec26  .#.Kb..r.......&
 108e8 466542e3 a68261f2 810f48cd 63a0d043  FeB...a...H.c..C
 108f8 3290904c d6313835 fe986452 4de5bf45  2..L.185..dRM..E
 10908 a5686508 55415bd6 3349a047 666351b0  .he.UA[.3I.GfcQ.
 10918 0a17ce92 c5104f35 82707dae 7f577006  ......O5.p}..Wp.
 10928 8c7d2b82 58952643 01d9b3bc 8c78bcab  .}+.X.&C.....x..
 10938 c4aff497 db995f4d cdf728e7 f4826189  ......_M..(...a.
 10948 597df013 75793951 902d25ff 963de593  Y}..uy9Q.-%..=..
 10958 3161934a be32c703 f07ec46d 8d8b6906  1a.J.2...~.m..i.
 10968 cca3148d f1ece03f f8e0f7bc c9e5434b  .......?......CK
 10978 cc1b0eb4 a111174a 773a9b10 216caa1c  .......Jw:..!l..
 10988 960f9b42 85f5efe6 248224e9 3ff1ea57  ...B....$.$.?..W
 10998 7843dc42 411e86bd 8edd0c1b 181d4bed  xC.BA.........K.
 109a8 08dff625 f04a4316 e85dbd3a 5900f9ce  ...%.JC..].:Y...
 109b8 0e68b5e9 6ca2dda7 7ddb8cfd e3746f74  .h..l...}....tot
 109c8 a2af0166 3c6f5bb2 27d5e9cc 8682255f  ...f<o[.'.....%_
 109d8 6be30bc4 59a4a650 87ce4b18 06669bb3  k...Y..P..K..f..
 109e8 4d825695 b1fb0a61 c6a61e8a c86c3bd6  M.V....a.....l;.
 109f8 d7949e70 975d4f5c ab18fe31 3d370c93  ...p.]O\...1=7..
 10a08 ab5f61c4 c69bf618 9c6257ce cb192e72  ._a......bW....r
 10a18 b321daff 17d87650 30f2ed89 4a88fb6d  .!....vP0...J..m
 10a28 2aae4071 67fbcf87 17fe0115 e675024f  *.@qg........u.O
 10a38 0bb3a99c 6dda68d4 8517cfe7 84740a1b  ....m.h......t..
 10a48 48d5ebaa 5d66bf32 c3528d0f 6e0965df  H...]f.2.R..n.e.
 10a58 9652a38d e9d78f94 d12f7398 4b9a1078  .R......./s.K..x
 10a68 3865b9ab e4fead58 d1e5fdd8 8d92ed4b  8e.....X.......K
 10a78 71b4ca8d feb081db 59a43a86 01e9584d  q.......Y.:...XM
 10a88 c1313ed7 05958f15 4bd228ad 2c03f3ef  .1>.....K.(.,...
 10a98 954face5 1b21e2d1 5a82c47f 69a98963  .O...!..Z...i..c
 10aa8 879c399c f84d5fea 7b2e7d70 a6e7ea8f  ..9..M_.{.}p....
 10ab8 9c01f104 193b39f3 d58bfe35 98a41056  .....;9....5...V
 10ac8 8f3d6e53 5377093b 2f939775 bcc5b2d3  .=nSSw.;/..u....
 10ad8 2244f38d 640664a4 23b1963f a3e11247  "D..d.d.#..?...G
 10ae8 a07d7cf8 7b978fe6 f50c592f fe353fec  .}|.{.....Y/.5?.
 10af8 7c04445f d5fff3b8 b9ae8758 4f939fd8  |.D_.......XO...
 10b08 4a19eb49 58a91f98 196a6b31 2906a0fd  J..IX....jk1)...
 10b18 a4443c1e 69c3e88f 1e1259aa ac1d560c  .D<.i.....Y...V.
 10b28 06dbec41 c92a9759 60a45af8 fcc418f9  ...A.*.Y`.Z.....
 10b38 a03f68c4 528a4e54 4822cb45 9f49ec51  .?h.R.NTH".E.I.Q
 10b48 cc248482 b9ea31b3 a409cace c3af8553  .$....1........S
 10b58 6f7cda72 23c88fdf ddd6e253 df6817c9  o|.r#......S.h..
 10b68 b5884dbe 472eff2e 52824f3f 2d5681d1  ..M.G...R.O?-V..
 10b78 43367d5e d6ac7e53 500777c1 d4d55d88  C6}^..~SP.w...].
 10b88 54553bd2 9a34b55f b0fa4223 46694d93  TU;..4._..B#FiM.
 10b98 6207ab78 24fda097 85dc323c 572e8333  b..x$.....2<W..3
 10ba8 d8919e9b 67578048 a94b84b9 71c5216d  ....gW.H.K..q.!m
 10bb8 70ca36d4 47ca94d8 2d379012 dd0c7103  p.6.G...-7....q.
 10bc8 2dc955f1 c9172e4b a22e7b4a 3ea40002  -.U....K..{J>...
 10bd8 d0d30c52 7a51420e 47489451 af2cfbb5  ...RzQB.GH.Q.,..
 10be8 39f34858 ba476ade ec3516d0 9c8196c6  9.HX.Gj..5......
 10bf8 dd3a0f0f 79bff47c b68ea454 500b097b  .:..y..|...TP..{
 10c08 ca89e52f ad1eb9e2 541dc88e cf57ddd2  .../....T....W..
 10c18 f658c74b 17793a98 b02b8260 22f1f106  .X.K.y:..+.`"...
 10c28 2cc2065f 4514868d 8976d4ae ce285fdb  ,.._E....v...(_.
 10c38 cfdbbcaa 4c292ace d0a11cfd ef6d6f6c  ....L)*......mol
 10c48 a5571255 f4f7a255 34281aad 30c982a6  .W.U...U4(..0...
 10c58 962ad662 ca36da01 e34d8e04 e73e41da  .*.b.6...M...>A.
 10c68 a65d9674 44da6e7f 341cce42 07c4e376  .].tD.n.4..B...v
 10c78 26d5038c d0ba1fe9 c28bdab2 ee4a97a1  &............J..
 10c88 c0cfbcec 8f8342b3 3db80cda c07c282f  ......B.=....|(/
 10c98 20695f09 559a696d 04127fe4 bd801326   i_.U.im.......&
 10ca8 345c2d4e a18bcc64 f6c2c4c1 139d7ede  4\-N...d......~.
 10cb8 6c653642 e14b29a0 28504b34 1cab73d7  le6B.K).(PK4..s.
 10cc8 5bb77e9d 60532173 ee943e1a a377c005  [.~.`S!s..>..w..
 10cd8 dc300729 731cdcaf 0f7baa47 bab01cc8  .0.)s....{.G....
 10ce8 f6592212 8d92760a 0ebcbe89 cc3d5c45  .Y"...v......=\E
 10cf8 359779b7 0a049af3 b4a7449b e7cc2c16  5.y.......D...,.
 10d08 17baf583 33ab5ffc 05541c3d bc37b811  ....3._..T.=.7..
 10d18 df63ac79 ce309452 696228a1 b01ee941  .c.y.0.Rib(....A
 10d28 f31eb34f bafed276 7440ea6e 65c2535f  ...O...vt@.ne.S_
 10d38 518c75ad 71f7442e 6e2c317a 2cec8b26  Q.u.q.D.n,1z,..&
 10d48 9f789f71 64c5bd4a 9b79d51c 73591f45  .x.qd..J.y..sY.E
 10d58 01699af0 e744f8d7 f8b1bafe 2c3c1363  .i...D......,<.c
 10d68 f663e162 2c87f535 e2f36de7 beaf63d3  .c.b,..5..m...c.
 10d78 2fa0434a 22697239 1c74be2e 5e703ca2  /.CJ"ir9.t..^p<.
 10d88 4ee0658f 7e1be64c 0b4704ec 109b70eb  N.e.~..L.G....p.
 10d98 43e89524 1d441c88 78dff731 7d546a12  C..$.D..x..1}Tj.
 10da8 bac846e5 422b13e9 4132333a 756326aa  ..F.B+..A23:uc&.
 10db8 b585b33d b37a9a93 ac29d140 f98217e8  ...=.z...).@....
 10dc8 529b9563 c89d229d 4a7b8453 64675978  R..c..".J{.SdgYx
 10dd8 019b1b61 898b2e45 508760c2 f8d8b74f  ...a...EP.`....O
 10de8 5b28de9b f267f5f6 f8f1398b 59a632f7  [(...g....9.Y.2.
 10df8 13fa9004 c038e9ad 0aca6489 45387005  .....8....d.E8p.
 10e08 ef6bc02c d41de9f4 b1657cce 1f7f9e27  .k.,.....e|....'
 10e18 923d17c4 599d95b6 fee01397 c6e16df7  .=..Y.........m.
 10e28 c95084aa 18553410 4b7fc901 1c3659fe  .P...U4.K....6Y.
 10e38 68883436 98b2a911 9a7adb79 0d85cf02  h.46.....z.y....
 10e48 dbf70276 898f51ec 41cdae73 72a6b48f  ...v..Q.A..sr...
 10e58 be39b04a 3a606dd8 314e9692 b490bab7  .9.J:`m.1N......
 10e68 1fd946b8 da58869e 9b4d590d 1f5d702a  ..F..X...MY..]p*
 10e78 11d39ed1 b02966ae 6bbc2740 8e476b2f  .....)f.k.'@.Gk/
 10e88 d8bb00a4 8fc3caae 69e8e033 d768f1db  ........i..3.h..
 10e98 53650367 53f221bb c61ac47f b2d42c65  Se.gS.!.......,e
 10ea8 db36850f 547e5a54 97495e8f 32cd6e13  .6..T~ZT.I^.2.n.
 10eb8 d5e49b4e 33444d59 b1779b47 3d8fbb1c  ...N3DMY.w.G=...
 10ec8 cdd58c51 9abb2412 e6a56954 891728a0  ...Q..$...iT..(.
 10ed8 5b44bf62 c34ef402 724855d2 cc98baea  [D.b.N..rHU.....
 10ee8 336b7049 961d6983 45b362a6 7d5003bf  3kpI..i.E.b.}P..
 10ef8 19707dcf 1e96ded0 edac3a7b 8021dfb5  .p}.......:{.!..
 10f08 f935cfd1 cbe9c6f4 096e1b1a cc32fcd7  .5.......n...2..
 10f18 59ef2b36 692871d5 27c53b2b 3de4cce5  Y.+6i(q.'.;+=...
 10f28 e374cb77 011efe67 95907aa1 dabf7b56  .t.w...g..z...{V
 10f38 9c3be7cf c04d9ed3 5542184f 4d3e80cf  .;...M..UB.OM>..
 10f48 d4037892 19d7a3d6 b428560f 3da4404a  ..x......(V.=.@J
 10f58 50ff0741 5500d5a1 b2490262 7605e4ef  P..AU....I.bv...
 10f68 e52e1daa 751bc5ed 20c4e6bc 867ec76d  ....u... ....~.m
 10f78 d6b3f829 dc7bec3d 40bb2e63 002a3b69  ...).{.=@..c.*;i
 10f88 70571098 959ec6f8 066bdcbf 7f56edb3  pW.......k...V..
 10f98 fcf6d44b 27937ec7 25246bea 40bd974f  ...K'.~.%$k.@..O
 10fa8 a600debf 8bd22a44 1113172c 73c6b656  ......*D...,s..V
 10fb8 1894a020 e8865ab1 10e3735e a745fadd  ... ..Z...s^.E..
 10fc8 be04d388 6087783a 121c2002 f654333c  ....`.x:.. ..T3<
 10fd8 02f09b9c d9299dbc 04ddf5e6 bd0d367d  .....)........6}
 10fe8 b5e4b6e1 7c831676 36b31915 c65fea7f  ....|..v6...._..
 10ff8 78bc1dd8 bb77f40c 88d25d12 0ad29c8e  x....w....].....
 11008 1582e08d 9d906249 e924b148 34fb8b53  ......bI.$.H4..S
 11018 01b277b4 2cadd1f3 f96d061d 78baafd4  ..w.,....m..x...
 11028 b18bb06e c7c87f7d 99783043 a00fd197  ...n...}.x0C....
 11038 c0b45d21 fa1476e0 cb8abdbd 3823ce35  ..]!..v.....8#.5
 11048 0a82d3e8 6f20480a d1682b8c a6d5f7ab  ....o H..h+.....
 11058 5e29ba0b 36f4d8fd dccc2f12 2162d0db  ^)..6...../.!b..
 11068 9eda96c4 1beb2e6d 369c6f21 8a69e625  .......m6.o!.i.%
 11078 9205d080 d4b87ba7 f1058c1c 8445e4f7  ......{......E..
 11088 4c7afb38 97718170 f950ba0f 170437e9  Lz.8.q.p.P....7.
 11098 bd423a4a 548c75dd 00089326 4af8822e  .B:JT.u....&J...
 110a8 0af36ab6 2e08f960 977b73a6 518ca6a0  ..j....`.{s.Q...
 110b8 03af0c5b 1e12049c 76197c02 2c94de4d  ...[....v.|.,..M
 110c8 f98d97aa 95f2f5d4 85e47c99 db1a96fe  ..........|.....
 110d8 6f81b3da 88d938c2 892d5415 2ee041a2  o.....8..-T...A.
 110e8 c62b693c 9ed842e7 1968095c 61c74f8d  .+i<..B..h.\a.O.
 110f8 81433048 33a27294 768031db 7663bbb6  .C0H3.r.v.1.vc..
 11108 4d4bcd58 ae9a8570 a5ee3b72 cfc4554b  MK.X...p..;r..UK
 11118 146d5943 ad68729c 911029d1 941b23bc  .mYC.hr...)...#.
 11128 2b79e81c 4684881b ac390861 ccf6553e  +y..F....9.a..U>
 11138 ff72944e 59658b76 12923aac 6357cf59  .r.NYe.v..:.cW.Y
 11148 4ebd3cd1 8a663600 00f0b46b 668360b8  N.<..f6....kf.`.
 11158 e04788a2 0cb25789 1a20ef75 5551e89f  .G....W.. .uUQ..
 11168 c7ea7ecc f09a27a5 7ccd6946 ed4de72a  ..~...'.|.iF.M.*
 11178 e1ff8eed ea13e58e 9e3b0f64 eeba803b  .........;.d...;
 11188 974dd09d c15ec2fa bdafd6f7 6ebe8680  .M...^......n...
 11198 119c7d88 0e3a679a 77873fcb 4141c2c4  ..}..:g.w.?.AA..
 111a8 805585f8 82c94764 fd07707f 630039b2  .U....Gd..p.c.9.
 111b8 7c0b2ebc 30a5e52b 6071e9a4 d8dc4e9f  |...0..+`q....N.
 111c8 aecce87a 5050b270 b0f4d9d7 3074fd08  ...zPP.p....0t..
 111d8 32c5d256 698c6de7 a4b54a15 ebbf240a  2..Vi.m...J...$.
 111e8 e65e973b 6de4bf3a b84c973b 7473d908  .^.;m..:.L.;ts..
 111f8 da867d08 fbce0f1c be3e2792 65884dd8  ..}......>'.e.M.
 11208 97c2f778 44e04a30 15c81b1a 063b4bd5  ...xD.J0.....;K.
 11218 a25091bd cb9c76a2 057c9d47 eefb1328  .P....v..|.G...(
 11228 e1e94e11 710ceb8e 03b2b9cb 24390853  ..N.q.......$9.S
 11238 c4a84b8f eb252899 ade3eeac 4170b433  ..K..%(.....Ap.3
 11248 5706906c 9eeefde0 1eafc4a4 dc1cd81a  W..l............
 11258 ca3bb692 7b7c1d17 ca178a47 2b2b74c4  .;..{|.....G++t.
 11268 22d9c284 f42cf72d 482f2574 61ec1eb0  "....,.-H/%ta...
 11278 8e04c7fd 347f8e97 0d8a9b82 e98aa8df  ....4...........
 11288 fd9e7786 2ee98ab3 8a7e7d34 b93f5afc  ..w......~}4.?Z.
 11298 65fbe44f 037428b0 2fc95854 31a273b2  e..O.t(./.XT1.s.
 112a8 e20ad0e2 5360a622 a807eb8f c4f192ad  ....S`."........
 112b8 e9654854 1faafd25 16977fb7 8ad74174  .eHT...%......At
 112c8 a23b758a 15bb6495 dcd0214e 73794b55  .;u...d...!NsyKU
 112d8 0648264c 278e7c15 814cd79b 6c0660c5  .H&L'.|..L..l.`.
 112e8 d76b5175 62b9ca31 3ae0a541 9c216396  .kQub..1:..A.!c.
 112f8 0ef81066 dc4ae894 7346595a 38f4961c  ...f.J..sFYZ8...
 11308 2f4dbb06 766565a2 06845574 bdd89bee  /M..vee...Ut....
 11318 e888214c 5de54b99 bb89831c 7e3a0763  ..!L].K.....~:.c
 11328 b352bd78 c62136a6 5e42f959 c07d2946  .R.x.!6.^B.Y.})F
 11338 f96a2559 74d601bf 132f87de 4d26165f  .j%Yt..../..M&._
 11348 c155825d 9f79660d 3f504bd1 956b6659  .U.].yf.?PK..kfY
 11358 cc76e6cb b7ee2fe2 09647ab7 7d91cffe  .v..../..dz.}...
 11368 d3243761 40de3298 64b37f25 cd5b0c90  .$7a@.2.d..%.[..
 11378 050d08c7 a1294ad6 7857a8d3 8dfeb218  .....)J.xW......
 11388 8ffe6665 c41cd6ca eadbe3b7 7a1abbea  ..fe........z...
 11398 678004f9 210840fc df2ed8a2 c60308e7  g...!.@.........
 113a8 7c4c59ab 513d329d 596f98a4 f69a9223  |LY.Q=2.Yo.....#
 113b8 85135eb1 535d664e 84cecc8c 4603293e  ..^.S]fN....F.)>
 113c8 8aa05ef2 4ddd2ca6 f2f4040d 9e1e5a88  ..^.M.,.......Z.
 113d8 246f0f39 e1a36f9c 473743d6 a2c503df  $o.9..o.G7C.....
 113e8 0460d16f ca6a0492 c664e045 e0c3b7a4  .`.o.j...d.E....
 113f8 90df9a9c f60b7084 f05d9afa cfe6a285  ......p..]......
 11408 a247271b b6150c94 7a0cd2ab 04d90f81  .G'.....z.......
 11418 c437c74c 159dc100 c64cb1b5 8709baeb  .7.L.....L......
 11428 0cfb0fd8 d3d95757 eda32e57 5de36cc6  ......WW...W].l.
 11438 ee64276f 77f053e1 b4fe9010 c8f14c2f  .d'ow.S.......L/
 11448 f5178023 79698e3e bbd5fe39 29eae58a  ...#yi.>...9)...
 11458 7488718c 9fda2ef6 2a607f68 6565c6c0  t.q.....*`.hee..
 11468 a8a83166 bb858656 95bce12f b201dbe7  ..1f...V.../....
 11478 b433eb8e 0ed91af5 b30418a1 4ecf45c3  .3..........N.E.
 11488 dd758621 4999127a 98def0e7 83a8fcfb  .u.!I..z........
 11498 c08c7c47 a5fcb4b0 c28fc608 888a36ba  ..|G..........6.
 114a8 fb0d0e09 99a67171 e9b8d598 bc36f888  ......qq.....6..
 114b8 862dc57c d8952d6d 94f9777d 4b534a12  .-.|..-m..w}KSJ.
 114c8 7963d0dd 02fb40ae c43bf1b4 337a14d9  yc....@..;..3z..
 114d8 f7e2b66a 7787c78f 6fd49624 9c648825  ...jw...o..$.d.%
 114e8 b7e16727 9bc64e92 c468ae1b 039e4507  ..g'..N..h....E.
 114f8 9fb37913 49cc7a85 605940bc 11572043  ..y.I.z.`Y@..W C
 11508 e612a879 e55bc7f2 d35b87db 351476c2  ...y.[...[..5.v.
 11518 10f2d254 c24e7114 1a207675 7ae02091  ...T.Nq.. vuz. .
 11528 de966fad 0f1d17d7 fdba5b50 431fda8b  ..o.......[PC...
 11538 5f6a5440 d10652a0 97e4bdfa 90901dee  _jT@..R.........
 11548 b5aaf79f 1b1288e1 4d3c3260 5fe1975a  ........M<2`_..Z
 11558 06113de6 9f93cceb 90bd4b97 1e523430  ..=.......K..R40
 11568 628fdd28 8c8bee41 a510d0b2 30b7d004  b..(...A....0...
 11578 b6ed2a0f cb27f7eb 1d11876e 036cce42  ..*..'.....n.l.B
 11588 2ba4f9cd 0b35bf57 edd0e461 449eadfb  +....5.W...aD...
 11598 46971281 1d2608dc 6c67d658 3880e7e1  F....&..lg.X8...
 115a8 ffc885db 5458ab66 a63a9981 d7b45449  ....TX.f.:....TI
 115b8 e3585458 eaf46891 99f5c20c 09c26a2a  .XTX..h.......j*
 115c8 ca19f8b9 a8e5d2cf 873146f6 87dce81e  .........1F.....
 115d8 3abdacf9 29828c22 a05e3c66 82799810  :...)..".^<f.y..
 115e8 7dea5c02 c54805af 007ae4ef 221dd60d  }.\..H...z.."...
 115f8 38ffffee f986fa0b b2b63113 5c898d26  8.........1.\..&
 11608 1fab8498 5304d705 1751f527 c2d43c19  ....S....Q.'..<.
 11618 5b052bf6 2d2916fb 5644ef4f 81728e5f  [.+.-)..VD.O.r._
 11628 8e2fc171 48d6d178 49b0cd83 e4fa2a5b  ./.qH..xI.....*[
 11638 5d66225d fafc7a29 8505d13e f32db207  ]f"]..z)...>.-..
 11648 2cea2ca6 332ef728 0bd6c2a9 950a49c7  ,.,.3..(......I.
 11658 ef331203 e5a9925f 974bb314 f3fe3e0d  .3....._.K....>.
 11668 142c068e 05ca9e4a e51fd316 d979940d  .,.....J.....y..
 11678 156de9af 0ca8d649 3d41b098 c11d8eb9  .m.....I=A......
 11688 1d2b68c1 2e9833ad fd8dbe25 81d8f832  .+h...3....%...2
 11698 f82c45ba 1f060d3d 445e99b7 206f3cf0  .,E....=D^.. o<.
 116a8 3c7592d3 0f2959a0 316ec36d 3042a4f0  <u...)Y.1n.m0B..
 116b8 a6db67ce 297ec102 8e806a0c beed2dd1  ..g.)~....j...-.
 116c8 64c12f89 82fcba35 bdd24363 d9aa2d98  d./....5..Cc..-.
 116d8 8b7d7791 4a0c7ff2 a50f7161 3b8c0690  .}w.J.....qa;...
 116e8 fa81be89 8353d463 d98d4493 9465e5dd  .....S.c..D..e..
 116f8 f8aa7882 ce2dac6b 9aa59902 620242aa  ..x..-.k....b.B.
 11708 9626b1d5 8df13be9 393025ed 3bf02913  .&....;.90%.;.).
 11718 a6a8409a b7eb963c e9bbb415 2c2a2edd  ..@....<....,*..
 11728 6760024d fa22dc5a d1012e50 7e840938  g`.M.".Z...P~..8
 11738 3aefd704 143c84d7 c768eb91 85a852a3  :....<...h....R.
 11748 aeff81ae 7d200a6c e5525597 299e6533  ....} .l.RU.).e3
 11758 abd110a8 846678ad 68f4e76d 233ade20  .....fx.h..m#:. 
 11768 7fe5a985 66fc8a8a 352c9a12 1f67d4ba  ....f...5,...g..
 11778 fbdd80c0 cdccdf18 2d03a23f 8b0775d8  ........-..?..u.
 11788 868537e5 d61f8fea c12e930d 9abb49ea  ..7...........I.
 11798 dd0ffa26 33707188 80b1c69a 1dde4f08  ...&3pq.......O.
 117a8 03a716bf f5ab1c7b c6ddd23b 05602bbf  .......{...;.`+.
 117b8 bc3ad9c2 ebe7d3f2 719f99d0 a2b8f17f  .:......q.......
 117c8 5421c260 f950e439 fbb8f6de 1d0826cf  T!.`.P.9......&.
 117d8 26d48aa4 fdac4849 096cb5ea 7db86de8  &.....HI.l..}.m.
 117e8 4f181676 651f745a be8d955c 54e17c8d  O..ve.tZ...\T.|.
 117f8 630f5d95 e9a6a5ba 73a0695b b5d74e96  c.].....s.i[..N.
 11808 2a642335 fd16bcc4 8633d7d8 a613ebaf  *d#5.....3......
 11818 f35e1723 b6199647 86c7bc8c 0e979e86  .^.#...G........
 11828 083a7d6f 80aedde1 5fdf7b8b 7982145b  .:}o...._.{.y..[
 11838 c61d0e11 3459d1e5 6dd76a87 916f5f0f  ....4Y..m.j..o_.
 11848 d931c13d 5d034aab 893d68a7 55f7bce6  .1.=].J..=h.U...
 11858 728ad2d3 f9fb36f9 748f812d 484e6fad  r.....6.t..-HNo.
 11868 335a5074 f6cfc475 ec4a2d86 38d2c96c  3ZPt...u.J-.8..l
 11878 e7c479ef 09001b8e 906540bb 2cc3f683  ..y......e@.,...
 11888 1a33aba8 044710e4 c4919c09 9bfab992  .3...G..........
 11898 cafffa61 23282026 c11e31de dee275c5  ...a#( &..1...u.
 118a8 615f32eb f23d04f8 d6902457 0a849e90  a_2..=....$W....
 118b8 1b7c69a6 ee7121af fdfeeb4b 502f3037  .|i..q!....KP/07
 118c8 e5fcf203 cda884aa d6be3e31 c92b64c4  ..........>1.+d.
 118d8 91e35e29 b5f1b26f a141cec0 f7b45d4a  ..^)...o.A....]J
 118e8 528d892c c8049520 b512dd2f 180af125  R..,... .../...%
 118f8 eff8164e 6ef8514d 7393941a b29c27e8  ...Nn.QMs.....'.
 11908 9eaec588 e137b155 7fb666a7 495065ac  .....7.U..f.IPe.
 11918 717fa872 7ff11573 7877341b 36d7b4b1  q..r...sxw4.6...
 11928 79576b0d 413850be b502617a f841de65  yWk.A8P...az.A.e
 11938 11f6cd29 d8fa3df8 ef79c1d1 c1df23e8  ...)..=..y....#.
 11948 8fb0b297 58806c19 e66b1a3c e9dea8db  ....X.l..k.<....
 11958 012bb4ef a4791bef 0ae621cf 4c4e114f  .+...y....!.LN.O
 11968 19929fdd 2d74c5a1 9b2006c3 8ba1458f  ....-t... ....E.
 11978 0927f5ff 16d9cde9 163bf373 880262cd  .'.......;.s..b.
 11988 7b73dd86 a23aaa0e de3ca284 8e85767b  {s...:...<....v{
 11998 64ba3864 1219b966 5bd3d08a 0c400dd8  d.8d...f[....@..
 119a8 5d6ada19 77daa838 e2855793 d5ccecc9  ]j..w..8..W.....
 119b8 25525339 59a6c01d bd91d94f 4df953d8  %RS9Y......OM.S.
 119c8 fafea8cf 099a6989 d43e6b45 27b0c1e0  ......i..>kE'...
 119d8 2c76dfab fe7efc2f 59efa5c0 137f9b87  ,v...~./Y.......
 119e8 814043f2 3a8f653e 3769784a 9dc42d11  .@C.:.e>7ixJ..-.
 119f8 90b5ea7b 5e552062 d50178da 119e3dd2  ...{^U b..x...=.
 11a08 fedc0c6b 3212ac52 749d1b06 624896ca  ...k2..Rt...bH..
 11a18 16157f56 90c722da 2ea51306 ede027bc  ...V..".......'.
 11a28 2c001976 a3cc0f52 8b74eaa1 6ae59e09  ,..v...R.t..j...
 11a38 d2cc5db8 7f18bf0e e2e5ec86 9a569062  ..]..........V.b
 11a48 5ba68847 3105b857 34d0865f 1b5d5448  [..G1..W4.._.]TH
 11a58 f8b4ad07 cfc1af2b 081f5edd fdcf81a3  .......+..^.....
 11a68 68974788 fa02398f 194ccc44 ac5930d1  h.G...9..L.D.Y0.
 11a78 161efae7 fcfcdcec b936e8bb ee3f09c8  .........6...?..
 11a88 224ed86e 32e6415e 17e66023 89740aac  "N.n2.A^..`#.t..
 11a98 6608ff04 9d81af03 633304df 324d0d2c  f.......c3..2M.,
 11aa8 eb0b7a37 9326f011 620c3ff3 361a7414  ..z7.&..b.?.6.t.
 11ab8 eb67e7d4 c2a1db37 f96aba5e 7d8c807d  .g.....7.j.^}..}
 11ac8 a842c310 11aa2c75 70979406 39853865  .B....,up...9.8e
 11ad8 4f92bb43 1e1f4b1c 97d2e424 42608093  O..C..K....$B`..
 11ae8 0f63b69b c64ec0a4 a2985bad 17febde5  .c...N....[.....
 11af8 62b8c022 103713b7 31ed240c dce4d964  b..".7..1.$....d
 11b08 5063b606 42a68cc7 3bd2e8c5 6b6838aa  Pc..B...;...kh8.
 11b18 e501e742 a5e04cce 8bd8db6a 4e0ba9ae  ...B..L....jN...
 11b28 bb316396 28743f39 3969645a f4cee2c3  .1c.(t?99idZ....
 11b38 a19c37c8 a4b04362 d5563699 2bac0074  ..7...Cb.V6.+..t
 11b48 74272656 ba3e77c6 71d7cad2 be7ea432  t'&V.>w.q....~.2
 11b58 192e50a2 7456ee7d 34960870 a69d9bd4  ..P.tV.}4..p....
 11b68 f4e1c02e 5f3d966d 6b061940 fd890e2c  ...._=.mk..@...,
 11b78 e734910e ec5626c9 96d90d53 0e919d00  .4...V&....S....
 11b88 8ebe0ca3 9e05de65 bd8edfd1 aad07ce0  .......e......|.
 11b98 331586ac c241af14 d14dc510 c7a7f115  3....A...M......
 11ba8 06f48874 fd604b2e da6c4016 6a124de5  ...t.`K..l@.j.M.
 11bb8 f1e922a5 a68f8939 9b338fe8 c7410b12  .."....9.3...A..
 11bc8 8e3f8bdf e69df179 6352478c 049ecc0b  .?.....ycRG.....
 11bd8 c541d7eb 3e554511 c4eb7907 314d1671  .A..>UE...y.1M.q
 11be8 962765cd 7f5079cf e3020a12 2f979921  .'e..Py...../..!
 11bf8 2341df79 26269a08 da4465ab a0283a59  #A.y&&...De..(:Y
 11c08 5ffc55e5 6bfc4d46 29a9dae9 31b6b13f  _.U.k.MF)...1..?
 11c18 0c99153e 75d25343 98dc7654 bc5df034  ...>u.SC..vT.].4
 11c28 3cfb562a d539c5a1 20783242 9fda090e  <.V*.9.. x2B....
 11c38 9ebd4d2a 89ffaed8 6a1861e4 f50aa9b1  ..M*....j.a.....
 11c48 faf56782 bef27aa5 e443b5c4 62ec55f5  ..g...z..C..b.U.
 11c58 b6894625 53e302f2 a211249b 321b301a  ..F%S.....$.2.0.
 11c68 6f942109 4a4a2a88 e81e9dcc c9e0b1f2  o.!.JJ*.........
 11c78 2cfda9b8 8bab5f82 b3bc2585 527bf782  ,....._...%.R{..
 11c88 10ef0aa3 ae247fcc c2f66f88 f73233d3  .....$....o..23.
 11c98 d7c6b853 f8e623a0 854d9762 3d098629  ...S..#..M.b=..)
 11ca8 134a9663 eaccaced a70c41e8 87ace5cf  .J.c......A.....
 11cb8 6aff5309 c36a3e47 a957f35c 4b49d0ea  j.S..j>G.W.\KI..
 11cc8 77025b4d 78abb43a 34dfd976 cc55c7ce  w.[Mx..:4..v.U..
 11cd8 61697ba4 b4a48d91 85123c16 a27c3eb1  ai{.......<..|>.
 11ce8 4d56bbbc e001444e 85b34366 b1e7687a  MV....DN..Cf..hz
 11cf8 2087de05 f02ee84d 8ddca99a e3ac5918   ......M......Y.
 11d08 0a0c6fd4 08385a98 9166c2da 75282465  ..o..8Z..f..u($e
 11d18 a3db9855 ab0ed002 8657f1aa 9c406398  ...U.....W...@c.
 11d28 b4d455a0 a3e88bc4 0276cf19 6c1691b3  ..U......v..l...
 11d38 b50b0c9b faec7dac 30b55699 47c62506  ......}.0.V.G.%.
 11d48 cc2c8c6a 22a7edb9 ef7fb140 feafe949  .,.j"......@...I
 11d58 91260dfe 73e926ae 4c5f2a78 b86a3686  .&..s.&.L_*x.j6.
 11d68 474555a7 733d0fe9 555d621b fdd8c7cc  GEU.s=..U]b.....
 11d78 2513941f 68fa3a55 be6a9a7d 97bc5cbe  %...h.:U.j.}..\.
 11d88 ee947057 d21c4948 192e0fc2 611f1a50  ..pW..IH....a..P
 11d98 8318d1f1 53ac5877 5e5de2dd 3dfbc03d  ....S.Xw^]..=..=
 11da8 6b7b01d9 322b8923 5f17e024 9681b606  k{..2+.#_..$....
 11db8 10e4cb92 73c82a17 dbc89090 ff3f8711  ....s.*......?..
 11dc8 c7dcfe0d 5ceea978 3c776629 7d149391  ....\..x<wf)}...
 11dd8 c1f30373 a7425901 1388fe3a 07979623  ...s.BY....:...#
 11de8 3781f846 75c43c27 30f13310 28c764ad  7..Fu.<'0.3.(.d.
 11df8 d19c0277 f96dba16 26b95891 73b39192  ...w.m..&.X.s...
 11e08 947b94da 6d81d9e2 613cdb05 867e75b3  .{..m...a<...~u.
 11e18 53efb225 986e18ac 2784bdf3 3ee73924  S..%.n..'...>.9$
 11e28 6d423663 8845036e de06bfe4 7a47db38  mB6c.E.n....zG.8
 11e38 0fc8f24b ae3aa06f dc4669d9 d20401ce  ...K.:.o.Fi.....
 11e48 7a9a11b3 d9b79354 5fe40bc9 52ca0e3e  z......T_...R..>
 11e58 3695d43c 3d4e6179 4b5445e7 ecf06037  6..<=NayKTE...`7
 11e68 a2d773fe 61afc029 fef0d49e 49ab934e  ..s.a..)....I..N
 11e78 5ced44b4 06bf02ec 3d4c8e4e 46cd2ebf  \.D.....=L.NF...
 11e88 0393c55c f89b92d8 0779d9a1 3f290893  ...\.....y..?)..
 11e98 d5a32ff2 ec4f04bc 2e70b107 a50f1b74  ../..O...p.....t
 11ea8 8dffe3a6 8cdc57f8 815f3c1a adbd1c26  ......W.._<....&
 11eb8 7a6fd818 1f2dccaa ce4df718 596bd4aa  zo...-...M..Yk..
 11ec8 1c571c17 8780ba4e 5019eaf1 edb5ede2  .W.....NP.......
 11ed8 be1132a0 e8b93185 0dfcd2cf 8852374a  ..2...1......R7J
 11ee8 c26f2cc4 73652436 6a130dbf 70c550e6  .o,.se$6j...p.P.
 11ef8 ab101a45 934a31a1 8d03f335 1faab8b4  ...E.J1....5....
 11f08 4e321428 a8a3833f 6790e57f b49bd6b3  N2.(...?g.......
 11f18 3cfa1239 f3c6e8b4 b081b1ff 9afa2417  <..9..........$.
 11f28 cfed2492 46b4fdaf aca4f641 40ac6440  ..$.F......A@.d@
 11f38 bb4d6e40 4b3d01fc a2b81f48 d7f89230  .Mn@K=.....H...0
 11f48 1c4ab451 6477da98 288239fe 728c0f7c  .J.Qdw..(.9.r..|
 11f58 c4cb4f16 2760fab1 b1939620 b93bf6f6  ..O.'`..... .;..
 11f68 844f3d86 8d551946 1f31db75 a7195eff  .O=..U.F.1.u..^.
 11f78 77c1190d 8be09f2f 65694b5f 7a15e8e4  w....../eiK_z...
 11f88 282bc831 5943c0c3 51c5cf49 e0dc3bff  (+.1YC..Q..I..;.
 11f98 a5db9b7a f3b34a31 03128154 f78270aa  ...z..J1...T..p.
 11fa8 8bf2a3ca e66c5e96 057a4e46 ce9154a8  .....l^..zNF..T.
 11fb8 2f14556d e2a21686 839cf768 a8f6df74  /.Um.......h...t
 11fc8 decb9a54 dd2322dc 73c2dc01 687aa12b  ...T.#".s...hz.+
 11fd8 c255edca 47944f06 ae2d59f9 87ee4826  .U..G.O..-Y...H&
 11fe8 73260d31 516d0b50 d4bb65c6 1747cd66  s&.1Qm.P..e..G.f
 11ff8 ff81a9ca d2bc3244 608a5e9b 6d4765ac  ......2D`.^.mGe.
 12008 6439eabb 68e6d184 ea096afc ae788f06  d9..h.....j..x..
 12018 cbfe2c3c 70aa6db3 09023929 4fdec92a  ..,<p.m...9)O..*
 12028 b3652bc5 eda1830f 3da54d7a 1943fa34  .e+.....=.Mz.C.4
 12038 8867e281 45e8ae91 f444cdbf fa060dba  .g..E....D......
 12048 750ddc0c c9feb0f2 f8f464bc c25c0e95  u.........d..\..
 12058 fd3ff075 26a5feb6 90320056 708b3e06  .?.u&....2.Vp.>.
 12068 2ee19317 6a371033 0ee9c4bb 0806b58a  ....j7.3........
 12078 2f9e40e3 089379d1 c5965895 53ac2327  /.@...y...X.S.#'
 12088 cd5ee860 8c8ccc0e 558fcc11 131ca4d0  .^.`....U.......
 12098 89aa41a5 56058e7e 7f562a4a b25cdd46  ..A.V..~.V*J.\.F
 120a8 d8be3f9a 7c551cd8 de6a8d98 ee8014a5  ..?.|U...j......
 120b8 8e0e3adb 831e5354 3e18201d 5b931db2  ..:...ST>. .[...
 120c8 d7bdb6ed c87a9a42 221f11b4 550777e3  .....z.B"...U.w.
 120d8 76229e6f bbf73dec 398510a8 6068cb83  v".o..=.9...`h..
 120e8 b28a1858 b1f05e52 e0a30054 ba22f91c  ...X..^R...T."..
 120f8 bc81ea9b 68c2af1e 894a2013 45fbe5eb  ....h....J .E...
 12108 d11944b9 1dfd8d0f 925fc055 ab4730c2  ..D......_.U.G0.
 12118 32a0beff c9b0937c 164f6960 d49c4d45  2......|.Oi`..ME
 12128 54b6e23b 10fcb4d9 faf7ba03 0564ba8f  T..;.........d..
 12138 3b0ae4a3 3323a4b5 8aed5810 229de8b5  ;...3#....X."...
 12148 0ebae9e3 52f56378 b459c8f7 64e5ee2d  ....R.cx.Y..d..-
 12158 ae7c6791 13426c0c ae1e3db1 828b172e  .|g..Bl...=.....
 12168 15d0c6b0 355eb92f 4fd82852 00538fca  ....5^./O.(R.S..
 12178 58cdae90 dc760464 8ce5ca2d 6589f907  X....v.d...-e...
 12188 6b5e468e 4f7e1bc3 9a763ece a6be8c95  k^F.O~...v>.....
 12198 15739eb1 59b83e0e dc43d8ca f8d2af30  .s..Y.>..C.....0
 121a8 609ae67e 84fc15ac 48f86f2c 58350833  `..~....H.o,X5.3
 121b8 7fad0e4a 85d33ff2 7047d026 d3f3d037  ...J..?.pG.&...7
 121c8 edad471e 9a4d3eb6 177b4d1e b86314d7  ..G..M>..{M..c..
 121d8 e9e302da 40d37b15 dbc974a6 3a8180aa  ....@.{...t.:...
 121e8 f168fc0f 9395a9aa 324b1071 cea019a9  .h......2K.q....
 121f8 bc3bed2b 1dc57b5b eb0d7e0d 686384b5  .;.+..{[..~.hc..
 12208 4033b306 30c92a74 0a9b040d b9288352  @3..0.*t.....(.R
 12218 79845d46 837d1d62 a1deb8e2 7f9a364b  y.]F.}.b......6K
 12228 189d1f01 dc46753b 8ea21bee 05bd72ff  .....Fu;......r.
 12238 d4032750 48b6704a 60106730 bbc11787  ..'PH.pJ`.g0....
 12248 9200e178 fa851abb 4bc1ad56 c299257c  ...x....K..V..%|
 12258 b1cec88a 9e78b8c1 a8044d62 b8bcd148  .....x....Mb...H
 12268 9eb263e6 e7169486 c72f3ee8 b429fe33  ..c....../>..).3
 12278 fff78f5d                             ...]            
Contents of section .comment:
 0000 4743433a 20282920 31342e32 2e3000    GCC: () 14.2.0. 
Contents of section .riscv.attributes:
 0000 41630000 00726973 63760001 59000000  Ac...riscv..Y...
 0010 04100572 76333269 3270315f 6d327030  ...rv32i2p1_m2p0
 0020 5f663270 325f7a69 63737232 70305f7a  _f2p2_zicsr2p0_z
 0030 6d6d756c 3170305f 7a766533 32783170  mmul1p0_zve32x1p
 0040 305f7a76 65363478 3170305f 7a766c33  0_zve64x1p0_zvl3
 0050 32623170 305f7a76 6c363462 31703000  2b1p0_zvl64b1p0.
 0060 08010a0b                             ....            

Disassembly of section .text0:

00000000 <_start>:
   0:	00000093          	li	ra,0
   4:	00000113          	li	sp,0
   8:	00000193          	li	gp,0
   c:	00000213          	li	tp,0
  10:	00000293          	li	t0,0
  14:	00000313          	li	t1,0
  18:	00000393          	li	t2,0
  1c:	00000413          	li	s0,0
  20:	00000493          	li	s1,0
  24:	00000513          	li	a0,0
  28:	00000593          	li	a1,0
  2c:	00000613          	li	a2,0
  30:	00000693          	li	a3,0
  34:	00000713          	li	a4,0
  38:	00000793          	li	a5,0
  3c:	00000813          	li	a6,0
  40:	00000893          	li	a7,0
  44:	00000913          	li	s2,0
  48:	00000993          	li	s3,0
  4c:	00000a13          	li	s4,0
  50:	00000a93          	li	s5,0
  54:	00000b13          	li	s6,0
  58:	00000b93          	li	s7,0
  5c:	00000c13          	li	s8,0
  60:	00000c93          	li	s9,0
  64:	00000d13          	li	s10,0
  68:	00000d93          	li	s11,0
  6c:	00000e13          	li	t3,0
  70:	00000e93          	li	t4,0
  74:	00000f13          	li	t5,0
  78:	00000f93          	li	t6,0
  7c:	00020197          	auipc	gp,0x20
  80:	78418193          	addi	gp,gp,1924 # 20800 <_gp>

00000084 <init_bss>:
  84:	00020517          	auipc	a0,0x20
  88:	f7c50513          	addi	a0,a0,-132 # 20000 <__sbss_end>
  8c:	00020597          	auipc	a1,0x20
  90:	f7058593          	addi	a1,a1,-144 # 1fffc <__rodata_end+0xdd80>
  94:	00000613          	li	a2,0
  98:	070000ef          	jal	ra,108 <fill_block>

0000009c <init_sbss>:
  9c:	00020517          	auipc	a0,0x20
  a0:	f6450513          	addi	a0,a0,-156 # 20000 <__sbss_end>
  a4:	00020597          	auipc	a1,0x20
  a8:	f5858593          	addi	a1,a1,-168 # 1fffc <__rodata_end+0xdd80>
  ac:	00000613          	li	a2,0
  b0:	058000ef          	jal	ra,108 <fill_block>

000000b4 <write_stack_pattern>:
  b4:	00020517          	auipc	a0,0x20
  b8:	f4c50513          	addi	a0,a0,-180 # 20000 <__sbss_end>
  bc:	00021597          	auipc	a1,0x21
  c0:	f4058593          	addi	a1,a1,-192 # 20ffc <_gp+0x7fc>
  c4:	00000613          	li	a2,0
  c8:	040000ef          	jal	ra,108 <fill_block>

000000cc <init_stack>:
  cc:	00021117          	auipc	sp,0x21
  d0:	f3410113          	addi	sp,sp,-204 # 21000 <__stack>

000000d4 <write_test_pattern>:
  d4:	20100517          	auipc	a0,0x20100
  d8:	f2c50513          	addi	a0,a0,-212 # 20100000 <_test_start>
  dc:	20101597          	auipc	a1,0x20101
  e0:	f2058593          	addi	a1,a1,-224 # 20100ffc <_test_start+0xffc>
  e4:	00000613          	li	a2,0
  e8:	020000ef          	jal	ra,108 <fill_block>

000000ec <SystemInit>:
  ec:	030000ef          	jal	ra,11c <boot>
  f0:	0e8100ef          	jal	ra,101d8 <main>

000000f4 <SystemExit>:
  f4:	00040297          	auipc	t0,0x40
  f8:	f0828293          	addi	t0,t0,-248 # 3fffc <_sim_end>
  fc:	fff00313          	li	t1,-1
 100:	0062a023          	sw	t1,0(t0)

00000104 <dead_loop>:
 104:	0000006f          	j	104 <dead_loop>

00000108 <fill_block>:
 108:	00a5e863          	bltu	a1,a0,118 <fb_end>
 10c:	00c52023          	sw	a2,0(a0)
 110:	00450513          	addi	a0,a0,4
 114:	ff5ff06f          	j	108 <fill_block>

00000118 <fb_end>:
 118:	00008067          	ret

0000011c <boot>:
 11c:	fe010113          	addi	sp,sp,-32
 120:	00112e23          	sw	ra,28(sp)
 124:	00812c23          	sw	s0,24(sp)
 128:	02010413          	addi	s0,sp,32
 12c:	100207b7          	lui	a5,0x10020
 130:	fef42623          	sw	a5,-20(s0)
 134:	30046073          	csrsi	mstatus,8
 138:	00001fb7          	lui	t6,0x1
 13c:	800f8f93          	addi	t6,t6,-2048 # 800 <boot+0x6e4>
 140:	304fa073          	csrs	mie,t6
 144:	fec42783          	lw	a5,-20(s0)
 148:	20078793          	addi	a5,a5,512 # 10020200 <_end+0xffe0200>
 14c:	20000737          	lui	a4,0x20000
 150:	00070713          	mv	a4,a4
 154:	00e7a023          	sw	a4,0(a5)
 158:	fec42783          	lw	a5,-20(s0)
 15c:	30078793          	addi	a5,a5,768
 160:	00010737          	lui	a4,0x10
 164:	00070713          	mv	a4,a4
 168:	00e7a023          	sw	a4,0(a5)
 16c:	200027b7          	lui	a5,0x20002
 170:	27c78713          	addi	a4,a5,636 # 2000227c <_dram_i_end>
 174:	200007b7          	lui	a5,0x20000
 178:	00078793          	mv	a5,a5
 17c:	40f707b3          	sub	a5,a4,a5
 180:	0027d713          	srli	a4,a5,0x2
 184:	fec42783          	lw	a5,-20(s0)
 188:	40078793          	addi	a5,a5,1024 # 20000400 <_dram_i_start+0x400>
 18c:	00170713          	addi	a4,a4,1 # 10001 <_imem_start+0x1>
 190:	00e7a023          	sw	a4,0(a5)
 194:	fec42783          	lw	a5,-20(s0)
 198:	10078793          	addi	a5,a5,256
 19c:	00100713          	li	a4,1
 1a0:	00e7a023          	sw	a4,0(a5)
 1a4:	10500073          	wfi
 1a8:	fec42783          	lw	a5,-20(s0)
 1ac:	20078793          	addi	a5,a5,512
 1b0:	20101737          	lui	a4,0x20101
 1b4:	00070713          	mv	a4,a4
 1b8:	00e7a023          	sw	a4,0(a5)
 1bc:	fec42783          	lw	a5,-20(s0)
 1c0:	30078793          	addi	a5,a5,768
 1c4:	00020737          	lui	a4,0x20
 1c8:	00070713          	mv	a4,a4
 1cc:	00e7a023          	sw	a4,0(a5)
 1d0:	000207b7          	lui	a5,0x20
 1d4:	00078713          	mv	a4,a5
 1d8:	000207b7          	lui	a5,0x20
 1dc:	00078793          	mv	a5,a5
 1e0:	40f707b3          	sub	a5,a4,a5
 1e4:	0027d713          	srli	a4,a5,0x2
 1e8:	fec42783          	lw	a5,-20(s0)
 1ec:	40078793          	addi	a5,a5,1024 # 20400 <__sbss_end+0x400>
 1f0:	00170713          	addi	a4,a4,1 # 20001 <__sbss_end+0x1>
 1f4:	00e7a023          	sw	a4,0(a5)
 1f8:	fec42783          	lw	a5,-20(s0)
 1fc:	10078793          	addi	a5,a5,256
 200:	00100713          	li	a4,1
 204:	00e7a023          	sw	a4,0(a5)
 208:	10500073          	wfi
 20c:	fec42783          	lw	a5,-20(s0)
 210:	20078793          	addi	a5,a5,512
 214:	20101737          	lui	a4,0x20101
 218:	00070713          	mv	a4,a4
 21c:	00e7a023          	sw	a4,0(a5)
 220:	fec42783          	lw	a5,-20(s0)
 224:	30078793          	addi	a5,a5,768
 228:	00020737          	lui	a4,0x20
 22c:	00070713          	mv	a4,a4
 230:	00e7a023          	sw	a4,0(a5)
 234:	000207b7          	lui	a5,0x20
 238:	00078713          	mv	a4,a5
 23c:	000207b7          	lui	a5,0x20
 240:	00078793          	mv	a5,a5
 244:	40f707b3          	sub	a5,a4,a5
 248:	0027d713          	srli	a4,a5,0x2
 24c:	fec42783          	lw	a5,-20(s0)
 250:	40078793          	addi	a5,a5,1024 # 20400 <__sbss_end+0x400>
 254:	00170713          	addi	a4,a4,1 # 20001 <__sbss_end+0x1>
 258:	00e7a023          	sw	a4,0(a5)
 25c:	fec42783          	lw	a5,-20(s0)
 260:	10078793          	addi	a5,a5,256
 264:	00100713          	li	a4,1
 268:	00e7a023          	sw	a4,0(a5)
 26c:	10500073          	wfi
 270:	00000013          	nop
 274:	01c12083          	lw	ra,28(sp)
 278:	01812403          	lw	s0,24(sp)
 27c:	02010113          	addi	sp,sp,32
 280:	00008067          	ret

Disassembly of section .text1:

00010000 <_imem_start>:
   10000:	f8410113          	addi	sp,sp,-124
   10004:	00112023          	sw	ra,0(sp)
   10008:	00212223          	sw	sp,4(sp)
   1000c:	00312423          	sw	gp,8(sp)
   10010:	00412623          	sw	tp,12(sp)
   10014:	00512823          	sw	t0,16(sp)
   10018:	00612a23          	sw	t1,20(sp)
   1001c:	00712c23          	sw	t2,24(sp)
   10020:	00812e23          	sw	s0,28(sp)
   10024:	02912023          	sw	s1,32(sp)
   10028:	02a12223          	sw	a0,36(sp)
   1002c:	02b12423          	sw	a1,40(sp)
   10030:	02c12623          	sw	a2,44(sp)
   10034:	02d12823          	sw	a3,48(sp)
   10038:	02e12a23          	sw	a4,52(sp)
   1003c:	02f12c23          	sw	a5,56(sp)
   10040:	03012e23          	sw	a6,60(sp)
   10044:	05112023          	sw	a7,64(sp)
   10048:	05212223          	sw	s2,68(sp)
   1004c:	05312423          	sw	s3,72(sp)
   10050:	05412623          	sw	s4,76(sp)
   10054:	05512823          	sw	s5,80(sp)
   10058:	05612a23          	sw	s6,84(sp)
   1005c:	05712c23          	sw	s7,88(sp)
   10060:	05812e23          	sw	s8,92(sp)
   10064:	07912023          	sw	s9,96(sp)
   10068:	07a12223          	sw	s10,100(sp)
   1006c:	07b12423          	sw	s11,104(sp)
   10070:	07c12623          	sw	t3,108(sp)
   10074:	07d12823          	sw	t4,112(sp)
   10078:	07e12a23          	sw	t5,116(sp)
   1007c:	07f12c23          	sw	t6,120(sp)
   10080:	104000ef          	jal	ra,10184 <trap_handler>
   10084:	00012083          	lw	ra,0(sp)
   10088:	00412103          	lw	sp,4(sp)
   1008c:	00812183          	lw	gp,8(sp)
   10090:	00c12203          	lw	tp,12(sp)
   10094:	01012283          	lw	t0,16(sp)
   10098:	01412303          	lw	t1,20(sp)
   1009c:	01812383          	lw	t2,24(sp)
   100a0:	01c12403          	lw	s0,28(sp)
   100a4:	02012483          	lw	s1,32(sp)
   100a8:	02412503          	lw	a0,36(sp)
   100ac:	02812583          	lw	a1,40(sp)
   100b0:	02c12603          	lw	a2,44(sp)
   100b4:	03012683          	lw	a3,48(sp)
   100b8:	03412703          	lw	a4,52(sp)
   100bc:	03812783          	lw	a5,56(sp)
   100c0:	03c12803          	lw	a6,60(sp)
   100c4:	04012883          	lw	a7,64(sp)
   100c8:	04412903          	lw	s2,68(sp)
   100cc:	04812983          	lw	s3,72(sp)
   100d0:	04c12a03          	lw	s4,76(sp)
   100d4:	05012a83          	lw	s5,80(sp)
   100d8:	05412b03          	lw	s6,84(sp)
   100dc:	05812b83          	lw	s7,88(sp)
   100e0:	05c12c03          	lw	s8,92(sp)
   100e4:	06012c83          	lw	s9,96(sp)
   100e8:	06412d03          	lw	s10,100(sp)
   100ec:	06812d83          	lw	s11,104(sp)
   100f0:	06c12e03          	lw	t3,108(sp)
   100f4:	07012e83          	lw	t4,112(sp)
   100f8:	07412f03          	lw	t5,116(sp)
   100fc:	07812f83          	lw	t6,120(sp)
   10100:	07c10113          	addi	sp,sp,124
   10104:	30200073          	mret

00010108 <timer_interrupt_handler>:
   10108:	fe010113          	addi	sp,sp,-32
   1010c:	00112e23          	sw	ra,28(sp)
   10110:	00812c23          	sw	s0,24(sp)
   10114:	02010413          	addi	s0,sp,32
   10118:	100107b7          	lui	a5,0x10010
   1011c:	fef42623          	sw	a5,-20(s0)
   10120:	30006073          	csrsi	mstatus,0
   10124:	fec42783          	lw	a5,-20(s0)
   10128:	10078793          	addi	a5,a5,256 # 10010100 <_end+0xffd0100>
   1012c:	0007a023          	sw	zero,0(a5)
   10130:	ed1ef06f          	j	0 <_start>
   10134:	00000013          	nop
   10138:	01c12083          	lw	ra,28(sp)
   1013c:	01812403          	lw	s0,24(sp)
   10140:	02010113          	addi	sp,sp,32
   10144:	00008067          	ret

00010148 <external_interrupt_handler>:
   10148:	fe010113          	addi	sp,sp,-32
   1014c:	00112e23          	sw	ra,28(sp)
   10150:	00812c23          	sw	s0,24(sp)
   10154:	02010413          	addi	s0,sp,32
   10158:	100207b7          	lui	a5,0x10020
   1015c:	fef42623          	sw	a5,-20(s0)
   10160:	30006073          	csrsi	mstatus,0
   10164:	fec42783          	lw	a5,-20(s0)
   10168:	10078793          	addi	a5,a5,256 # 10020100 <_end+0xffe0100>
   1016c:	0007a023          	sw	zero,0(a5)
   10170:	00000013          	nop
   10174:	01c12083          	lw	ra,28(sp)
   10178:	01812403          	lw	s0,24(sp)
   1017c:	02010113          	addi	sp,sp,32
   10180:	00008067          	ret

00010184 <trap_handler>:
   10184:	fe010113          	addi	sp,sp,-32
   10188:	00112e23          	sw	ra,28(sp)
   1018c:	00812c23          	sw	s0,24(sp)
   10190:	02010413          	addi	s0,sp,32
   10194:	344027f3          	csrr	a5,mip
   10198:	fef42623          	sw	a5,-20(s0)
   1019c:	fec42783          	lw	a5,-20(s0)
   101a0:	0807f793          	andi	a5,a5,128
   101a4:	00078463          	beqz	a5,101ac <trap_handler+0x28>
   101a8:	f61ff0ef          	jal	ra,10108 <timer_interrupt_handler>
   101ac:	fec42703          	lw	a4,-20(s0)
   101b0:	000017b7          	lui	a5,0x1
   101b4:	80078793          	addi	a5,a5,-2048 # 800 <boot+0x6e4>
   101b8:	00f777b3          	and	a5,a4,a5
   101bc:	00078463          	beqz	a5,101c4 <trap_handler+0x40>
   101c0:	f89ff0ef          	jal	ra,10148 <external_interrupt_handler>
   101c4:	00000013          	nop
   101c8:	01c12083          	lw	ra,28(sp)
   101cc:	01812403          	lw	s0,24(sp)
   101d0:	02010113          	addi	sp,sp,32
   101d4:	00008067          	ret

000101d8 <main>:
   101d8:	fe010113          	addi	sp,sp,-32
   101dc:	00112e23          	sw	ra,28(sp)
   101e0:	00812c23          	sw	s0,24(sp)
   101e4:	02010413          	addi	s0,sp,32
   101e8:	000107b7          	lui	a5,0x10
   101ec:	27c78793          	addi	a5,a5,636 # 1027c <input_array_addr>
   101f0:	fef42423          	sw	a5,-24(s0)
   101f4:	201007b7          	lui	a5,0x20100
   101f8:	00078793          	mv	a5,a5
   101fc:	fef42223          	sw	a5,-28(s0)
   10200:	fe042623          	sw	zero,-20(s0)
   10204:	04c0006f          	j	10250 <main+0x78>
   10208:	fec42783          	lw	a5,-20(s0)
   1020c:	fe842703          	lw	a4,-24(s0)
   10210:	00f707b3          	add	a5,a4,a5
   10214:	fec42703          	lw	a4,-20(s0)
   10218:	fe442683          	lw	a3,-28(s0)
   1021c:	00e68733          	add	a4,a3,a4
   10220:	000106b7          	lui	a3,0x10
   10224:	2786a603          	lw	a2,632(a3) # 10278 <__rodata_start>
   10228:	fec42683          	lw	a3,-20(s0)
   1022c:	40d606b3          	sub	a3,a2,a3
   10230:	0006f2d7          	0x6f2d7
   10234:	02078087          	0x2078087
   10238:	5e003157          	0x5e003157
   1023c:	1e1101d7          	0x1e1101d7
   10240:	020701a7          	0x20701a7
   10244:	fec42783          	lw	a5,-20(s0)
   10248:	00878793          	addi	a5,a5,8 # 20100008 <_test_start+0x8>
   1024c:	fef42623          	sw	a5,-20(s0)
   10250:	fec42703          	lw	a4,-20(s0)
   10254:	000107b7          	lui	a5,0x10
   10258:	2787a783          	lw	a5,632(a5) # 10278 <__rodata_start>
   1025c:	faf766e3          	bltu	a4,a5,10208 <main+0x30>
   10260:	00000793          	li	a5,0
   10264:	00078513          	mv	a0,a5
   10268:	01c12083          	lw	ra,28(sp)
   1026c:	01812403          	lw	s0,24(sp)
   10270:	02010113          	addi	sp,sp,32
   10274:	00008067          	ret
