
main:     file format elf32-littleriscv
main
architecture: riscv:rv32, flags 0x00000112:
EXEC_P, HAS_SYMS, D_PAGED
start address 0x00000000

Program Header:
0x70000003 off    0x0000300f vaddr 0x00000000 paddr 0x00000000 align 2**0
         filesz 0x00000064 memsz 0x00000000 flags r--
    LOAD off    0x00001000 vaddr 0x00000000 paddr 0x00000000 align 2**12
         filesz 0x00000284 memsz 0x00000284 flags r-x
    LOAD off    0x00002000 vaddr 0x00010000 paddr 0x20000000 align 2**12
         filesz 0x00000dd8 memsz 0x00000dd8 flags r-x
    LOAD off    0x00000000 vaddr 0x20100000 paddr 0x20100000 align 2**12
         filesz 0x00000000 memsz 0x00001000 flags rw-
    LOAD off    0x00003000 vaddr 0x00020000 paddr 0x20101000 align 2**12
         filesz 0x00000000 memsz 0x00001000 flags rw-
   STACK off    0x00000000 vaddr 0x00000000 paddr 0x00000000 align 2**4
         filesz 0x00000000 memsz 0x00000000 flags rw-

Sections:
Idx Name          Size      VMA       LMA       File off  Algn
  0 .text0        00000284  00000000  00000000  00001000  2**2
                  CONTENTS, ALLOC, LOAD, READONLY, CODE
  1 .text1        00000db4  00010000  20000000  00002000  2**2
                  CONTENTS, ALLOC, LOAD, READONLY, CODE
  2 .rodata       00000024  00010db4  20000db4  00002db4  2**2
                  CONTENTS, ALLOC, LOAD, READONLY, DATA
  3 _test         00001000  20100000  20100000  00003000  2**0
                  ALLOC
  4 .data         00000000  00020000  20101000  00003000  2**0
                  CONTENTS, ALLOC, LOAD, DATA
  5 .bss          00000000  00020000  20101000  00003000  2**0
                  ALLOC
  6 .stack        00001000  00020000  20101000  00003000  2**0
                  ALLOC
  7 .comment      0000000f  00000000  00000000  00003000  2**0
                  CONTENTS, READONLY
  8 .riscv.attributes 00000064  00000000  00000000  0000300f  2**0
                  CONTENTS, READONLY
SYMBOL TABLE:
00000000 l    d  .text0	00000000 .text0
00010000 l    d  .text1	00000000 .text1
00010db4 l    d  .rodata	00000000 .rodata
20100000 l    d  _test	00000000 _test
00020000 l    d  .data	00000000 .data
00020000 l    d  .bss	00000000 .bss
00020000 l    d  .stack	00000000 .stack
00000000 l    d  .comment	00000000 .comment
00000000 l    d  .riscv.attributes	00000000 .riscv.attributes
00000000 l    df *ABS*	00000000 setup.o
00000000 l       .text0	00000000 $xrv32i2p1_m2p0_f2p2_zicsr2p0_zmmul1p0_zve32x1p0_zve64x1p0_zvl32b1p0_zvl64b1p0
00000084 l       .text0	00000000 init_bss
00000108 l       .text0	00000000 fill_block
0000009c l       .text0	00000000 init_sbss
000000b4 l       .text0	00000000 write_stack_pattern
000000cc l       .text0	00000000 init_stack
000000d4 l       .text0	00000000 write_test_pattern
000000ec l       .text0	00000000 SystemInit
000000f4 l       .text0	00000000 SystemExit
00000104 l       .text0	00000000 dead_loop
00000118 l       .text0	00000000 fb_end
00000000 l    df *ABS*	00000000 boot.c
0000011c l       .text0	00000000 $xrv32i2p1_m2p0_f2p2_zicsr2p0_zmmul1p0_zve32x1p0_zve64x1p0_zvl32b1p0_zvl64b1p0
00000000 l    df *ABS*	00000000 isr.o
00010000 l       .text1	00000000 $xrv32i2p1_m2p0_f2p2_zicsr2p0_zmmul1p0_zve32x1p0_zve64x1p0_zvl32b1p0_zvl64b1p0
00000000 l    df *ABS*	00000000 trap_handler.c
00010108 l       .text1	00000000 $xrv32i2p1_m2p0_f2p2_zicsr2p0_zmmul1p0_zve32x1p0_zve64x1p0_zvl32b1p0_zvl64b1p0
00000000 l    df *ABS*	00000000 main.o
000101d8 l       .text1	00000000 $xrv32i2p1_m2p0_f2p2_zicsr2p0_zmmul1p0_zve32x1p0_zve64x1p0_zvl32b1p0_zvl64b1p0
000101e8 l       .text1	00000000 vadd_e8m8
00010210 l       .text1	00000000 vadd_e8m4
00010240 l       .text1	00000000 vadd_e8m2
00010270 l       .text1	00000000 vadd_e8m1
000102c8 l       .text1	00000000 vadd_e16m8
000102f4 l       .text1	00000000 vadd_e16m4
00010320 l       .text1	00000000 vadd_e16m2
0001034c l       .text1	00000000 vadd_e16m1
00010378 l       .text1	00000000 vadd_e32m8
000103a4 l       .text1	00000000 vadd_e32m4
000103d0 l       .text1	00000000 vadd_e32m2
000103fc l       .text1	00000000 vadd_e32m1
00010428 l       .text1	00000000 vadd_e64m8
00010454 l       .text1	00000000 vadd_e64m4
00010480 l       .text1	00000000 vadd_e64m2
000104ac l       .text1	00000000 vadd_e64m1
000104d8 l       .text1	00000000 vsub_e8m1
00010504 l       .text1	00000000 vsub_e16m8
00010528 l       .text1	00000000 vsub_e16m4
0001054c l       .text1	00000000 vsub_e16m2
00010570 l       .text1	00000000 vsub_e16m1
0001059c l       .text1	00000000 vsub_e32m1
000105c8 l       .text1	00000000 vsub_e64m1
000105f4 l       .text1	00000000 vrsub_e8m1
00010614 l       .text1	00000000 vrsub_e16m1
00010634 l       .text1	00000000 vrsub_e32m1
00010654 l       .text1	00000000 vrsub_e64m1
00010674 l       .text1	00000000 vand_e8m1
0001069c l       .text1	00000000 vand_e16m1
000106c4 l       .text1	00000000 vand_e32m1
000106ec l       .text1	00000000 vand_e64m1
00010714 l       .text1	00000000 vor_e8m2
00010744 l       .text1	00000000 vor_e16m1
00010774 l       .text1	00000000 vor_e32m1
000107a4 l       .text1	00000000 vor_e64m1
000107d4 l       .text1	00000000 vxor_e8m1
000107fc l       .text1	00000000 vxor_e16m1
00010824 l       .text1	00000000 vxor_e32m1
0001084c l       .text1	00000000 vxor_e64m1
00010874 l       .text1	00000000 vmin_e8m1
00010890 l       .text1	00000000 vmin_e16m1
000108ac l       .text1	00000000 vmin_e32m1
000108c8 l       .text1	00000000 vmin_e64m1
000108e4 l       .text1	00000000 vmax_e8m1
00010900 l       .text1	00000000 vmax_e16m1
0001091c l       .text1	00000000 vmax_e32m1
00010938 l       .text1	00000000 vmax_e64m1
00010954 l       .text1	00000000 vmul_e16m1
00010970 l       .text1	00000000 vmul_e32m2
00010998 l       .text1	00000000 vmul_e64m2
000109c0 l       .text1	00000000 vmul_e8m1
000109dc l       .text1	00000000 vmulh_e16m1
000109f8 l       .text1	00000000 vmulh_e32m2
00010a20 l       .text1	00000000 vmulh_e64m2
00010a48 l       .text1	00000000 vslidedown_e8m2
00010a6c l       .text1	00000000 vslidedown_e32m2
00010a8c l       .text1	00000000 vslide1down_e32m2
00010ab0 l       .text1	00000000 vslideup_e8m2
00010ad4 l       .text1	00000000 vslideup_e32m2
00010af4 l       .text1	00000000 vslide1up_e32m2
00010b18 l       .text1	00000000 vsll_e16m1
00010b40 l       .text1	00000000 vsra_e16m1
00010b68 l       .text1	00000000 vsrl_e16m1
00010b90 l       .text1	00000000 vse8_e8m1
00010bac l       .text1	00000000 vse16_e16m1
00010bc8 l       .text1	00000000 vse32_e32m1
00010be4 l       .text1	00000000 vse64_e64m1
00010c00 l       .text1	00000000 vsse8_e8m1
00010c20 l       .text1	00000000 vsse16_e16m1
00010c40 l       .text1	00000000 vsse32_e32m1
00010c60 l       .text1	00000000 vsse64_e64m1
00010c80 l       .text1	00000000 vsse64_e64m2
00010ca0 l       .text1	00000000 vsse64_e64m4
00010cc0 l       .text1	00000000 vsse64_e64m8
00010ce0 l       .text1	00000000 vle8_e8m1
00010d00 l       .text1	00000000 vle16_e16m1
00010d20 l       .text1	00000000 vle32_e32m1
00010d40 l       .text1	00000000 vle64_e64m1
00010d60 l       .text1	00000000 vle8_e8m2
00010d84 l       .text1	00000000 vle832_e32m2
00010da8 l       .text1	00000000 main_exit
20100000 g       _test	00000000 _test_start
20101000 g       *ABS*	00000000 __data_paddr_start
00010db4 g       .rodata	00000000 vdata_start
00020000 g       _test	00000000 __sbss_start
00020800 g       _test	00000000 _gp
20101000 g       _test	00000000 _test_end
00010000 g       .text1	00000000 _imem_start
00001000 g       *ABS*	00000000 _TEST_SIZE
20101000 g       *ABS*	00000000 __sdata_paddr_start
00020000 g       _test	00000000 __sdata_start
00010dd8 g       .rodata	00000000 __rodata_end
0000011c g     F .text0	00000168 boot
00020000 g       .bss	00000000 __bss_end
00010184 g     F .text1	00000054 trap_handler
00020000 g       _test	00000000 __sbss_end
00000000 g       .text0	00000000 _start
00010db4 g       .rodata	00000000 __rodata_start
00010108 g     F .text1	00000040 timer_interrupt_handler
00010148 g     F .text1	0000003c external_interrupt_handler
00020000 g       .data	00000000 __data_end
20000000 g       .rodata	00000000 _dram_i_start
00020000 g       .bss	00000000 __bss_start
00001000 g       *ABS*	00000000 _STACK_SIZE
0003fffc g       .stack	00000000 _sim_end
000101d8 g       .text1	00000000 main
00010000 g       .text1	00000000 trap_entry
00020000 g       .stack	00000000 _stack_end
00020000 g       _test	00000000 __sdata_end
20000dd8 g       .rodata	00000000 _dram_i_end
00021000 g       .stack	00000000 __stack
00040000 g       .stack	00000000 _end
00021000 g       .stack	00000000 _stack
00010dc8 g       .rodata	00000000 vadd64_data
00020000 g       .data	00000000 __data_start


Contents of section .text0:
 0000 93000000 13010000 93010000 13020000  ................
 0010 93020000 13030000 93030000 13040000  ................
 0020 93040000 13050000 93050000 13060000  ................
 0030 93060000 13070000 93070000 13080000  ................
 0040 93080000 13090000 93090000 130a0000  ................
 0050 930a0000 130b0000 930b0000 130c0000  ................
 0060 930c0000 130d0000 930d0000 130e0000  ................
 0070 930e0000 130f0000 930f0000 97010200  ................
 0080 93814178 17050200 1305c5f7 97050200  ..Ax............
 0090 938505f7 13060000 ef000007 17050200  ................
 00a0 130545f6 97050200 938585f5 13060000  ..E.............
 00b0 ef008005 17050200 1305c5f4 97150200  ................
 00c0 938505f4 13060000 ef000004 17110200  ................
 00d0 130141f3 17051020 1305c5f2 97151020  ..A.... ....... 
 00e0 938505f2 13060000 ef000002 ef000003  ................
 00f0 ef00810e 97020400 938282f0 1303f0ff  ................
 0100 23a06200 6f000000 63e8a500 2320c500  #.b.o...c...# ..
 0110 13054500 6ff05fff 67800000 130101fe  ..E.o._.g.......
 0120 232e1100 232c8100 13040102 b7070210  #...#,..........
 0130 2326f4fe 73600430 b71f0000 938f0f80  #&..s`.0........
 0140 73a04f30 8327c4fe 93870720 37070020  s.O0.'..... 7.. 
 0150 13070700 23a0e700 8327c4fe 93870730  ....#....'.....0
 0160 37070100 13070700 23a0e700 b7170020  7.......#...... 
 0170 138787dd b7070020 93870700 b307f740  ....... .......@
 0180 13d72700 8327c4fe 93870740 13071700  ..'..'.....@....
 0190 23a0e700 8327c4fe 93870710 13071000  #....'..........
 01a0 23a0e700 73005010 8327c4fe 93870720  #...s.P..'..... 
 01b0 37171020 13070700 23a0e700 8327c4fe  7.. ....#....'..
 01c0 93870730 37070200 13070700 23a0e700  ...07.......#...
 01d0 b7070200 13870700 b7070200 93870700  ................
 01e0 b307f740 13d72700 8327c4fe 93870740  ...@..'..'.....@
 01f0 13071700 23a0e700 8327c4fe 93870710  ....#....'......
 0200 13071000 23a0e700 73005010 8327c4fe  ....#...s.P..'..
 0210 93870720 37171020 13070700 23a0e700  ... 7.. ....#...
 0220 8327c4fe 93870730 37070200 13070700  .'.....07.......
 0230 23a0e700 b7070200 13870700 b7070200  #...............
 0240 93870700 b307f740 13d72700 8327c4fe  .......@..'..'..
 0250 93870740 13071700 23a0e700 8327c4fe  ...@....#....'..
 0260 93870710 13071000 23a0e700 73005010  ........#...s.P.
 0270 13000000 8320c101 03248101 13010102  ..... ...$......
 0280 67800000                             g...            
Contents of section .text1:
 10000 130141f8 23201100 23222100 23243100  ..A.# ..#"!.#$1.
 10010 23264100 23285100 232a6100 232c7100  #&A.#(Q.#*a.#,q.
 10020 232e8100 23209102 2322a102 2324b102  #...# ..#"..#$..
 10030 2326c102 2328d102 232ae102 232cf102  #&..#(..#*..#,..
 10040 232e0103 23201105 23222105 23243105  #...# ..#"!.#$1.
 10050 23264105 23285105 232a6105 232c7105  #&A.#(Q.#*a.#,q.
 10060 232e8105 23209107 2322a107 2324b107  #...# ..#"..#$..
 10070 2326c107 2328d107 232ae107 232cf107  #&..#(..#*..#,..
 10080 ef004010 83200100 03214100 83218100  ..@.. ...!A..!..
 10090 0322c100 83220101 03234101 83238101  ."..."...#A..#..
 100a0 0324c101 83240102 03254102 83258102  .$...$...%A..%..
 100b0 0326c102 83260103 03274103 83278103  .&...&...'A..'..
 100c0 0328c103 83280104 03294104 83298104  .(...(...)A..)..
 100d0 032ac104 832a0105 032b4105 832b8105  .*...*...+A..+..
 100e0 032cc105 832c0106 032d4106 832d8106  .,...,...-A..-..
 100f0 032ec106 832e0107 032f4107 832f8107  ........./A../..
 10100 1301c107 73002030 130101fe 232e1100  ....s. 0....#...
 10110 232c8100 13040102 b7070110 2326f4fe  #,..........#&..
 10120 73600030 8327c4fe 93870710 23a00700  s`.0.'......#...
 10130 6ff01eed 13000000 8320c101 03248101  o........ ...$..
 10140 13010102 67800000 130101fe 232e1100  ....g.......#...
 10150 232c8100 13040102 b7070210 2326f4fe  #,..........#&..
 10160 73600030 8327c4fe 93870710 23a00700  s`.0.'......#...
 10170 13000000 8320c101 03248101 13010102  ..... ...$......
 10180 67800000 130101fe 232e1100 232c8100  g.......#...#,..
 10190 13040102 f3274034 2326f4fe 8327c4fe  .....'@4#&...'..
 101a0 93f70708 63840700 eff01ff6 0327c4fe  ....c........'..
 101b0 b7170000 93870780 b377f700 63840700  .........w..c...
 101c0 eff09ff8 13000000 8320c101 03248101  ......... ...$..
 101d0 13010102 67800000 1301c1ff 23208100  ....g.......# ..
 101e0 17040f20 130404e2 93022002 57f03200  ... ...... .W.2.
 101f0 1303f0ff 57400302 57400302 57400302  ....W@..W@..W@..
 10200 57400302 57400302 27000402 13044402  W@..W@..'.....D.
 10210 9302d001 57f02200 93025000 1303e0ff  ....W."...P.....
 10220 57c00202 57400302 57400302 57400302  W...W@..W@..W@..
 10230 57400302 57400302 27000402 13040402  W@..W@..'.......
 10240 93020001 57f01200 9302a000 13034000  ....W.........@.
 10250 57c00202 57400302 57400302 57400302  W...W@..W@..W@..
 10260 57400302 57400302 27000402 13040401  W@..W@..'.......
 10270 93025000 57f00200 9302c0fe 13035000  ..P.W.........P.
 10280 57c00202 57400302 57400302 57400302  W...W@..W@..W@..
 10290 57400302 57400302 57400302 57400302  W@..W@..W@..W@..
 102a0 57400302 57400302 57400302 57400302  W@..W@..W@..W@..
 102b0 57400302 57400302 57400302 57400302  W@..W@..W@..W@..
 102c0 27000402 13048400 93024001 13035000  '.........@...P.
 102d0 57f0b200 5730015e 57400302 57400302  W...W0.^W@..W@..
 102e0 57400302 57400302 57400302 27500402  W@..W@..W@..'P..
 102f0 13048402 9302a000 13039000 57f0a200  ............W...
 10300 5730015e 57400302 57400302 57400302  W0.^W@..W@..W@..
 10310 57400302 57400302 27500402 13044401  W@..W@..'P....D.
 10320 93025000 13035000 57f09200 5730045e  ..P...P.W...W0.^
 10330 57400302 57400302 57400302 57400302  W@..W@..W@..W@..
 10340 57400302 27500402 1304c400 93022000  W@..'P........ .
 10350 1303f0ff 57f08200 5730015e 57400302  ....W...W0.^W@..
 10360 57400302 57400302 57400302 57400302  W@..W@..W@..W@..
 10370 27500402 13044400 93024001 13035000  'P....D...@...P.
 10380 57f0b200 5730015e 57400302 57400302  W...W0.^W@..W@..
 10390 57400302 57400302 57400302 27500402  W@..W@..W@..'P..
 103a0 13048402 9302a000 13039000 57f0a200  ............W...
 103b0 5730015e 57400302 57400302 57400302  W0.^W@..W@..W@..
 103c0 57400302 57400302 27500402 13044401  W@..W@..'P....D.
 103d0 93025000 13035000 57f09200 5730045e  ..P...P.W...W0.^
 103e0 57400302 57400302 57400302 57400302  W@..W@..W@..W@..
 103f0 57400302 27500402 1304c400 93022000  W@..'P........ .
 10400 1303f0ff 57f08200 5730015e 57400302  ....W...W0.^W@..
 10410 57400302 57400302 57400302 57400302  W@..W@..W@..W@..
 10420 27500402 13044400 93028000 1303a000  'P....D.........
 10430 57f0b201 57b0005e 57400302 57400302  W...W..^W@..W@..
 10440 57400302 57400302 57400302 27700402  W@..W@..W@..'p..
 10450 13040404 93024000 1303f000 57f0a201  ......@.....W...
 10460 57b0015e 57400302 57400302 57400302  W..^W@..W@..W@..
 10470 57400302 57400302 27700402 13040402  W@..W@..'p......
 10480 93022000 13034001 57f09201 57b0025e  .. ...@.W...W..^
 10490 57400302 57400302 57400302 57400302  W@..W@..W@..W@..
 104a0 57400302 27700402 13040401 93021000  W@..'p..........
 104b0 1303a0ff 57f08201 57b0025e 57400302  ....W...W..^W@..
 104c0 57400302 57400302 57400302 57400302  W@..W@..W@..W@..
 104d0 27700402 13048400 93026000 57f00200  'p........`.W...
 104e0 1303f0ff 5730005e d730005e 5740030a  ....W0.^.0.^W@..
 104f0 d740130a d700100a d740130a a7000402  .@.......@......
 10500 13048400 93020001 13034001 57f0b200  ..........@.W...
 10510 5730055e 57b4025e 5700040a 5740030a  W0.^W..^W...W@..
 10520 27500402 13040402 93028000 1303e001  'P..............
 10530 57f0a200 5730015e 57b4035e 5700040a  W...W0.^W..^W...
 10540 5740030a 27500402 13040401 93024000  W@..'P........@.
 10550 1303f000 57f09200 57b0015e 5734055e  ....W...W..^W4.^
 10560 5700040a 5740030a 27500402 13048400  W...W@..'P......
 10570 93022000 1303f0ff 57f08200 5730005e  .. .....W...W0.^
 10580 d730005e 5740030a d740130a d700100a  .0.^W@...@......
 10590 d740130a a7500402 13044400 93022000  .@...P....D... .
 105a0 1303f0ff 57f00201 5730005e d730005e  ....W...W0.^.0.^
 105b0 5740030a d740130a d700100a d740130a  W@...@.......@..
 105c0 a7600402 13048400 93021000 1303f0ff  .`..............
 105d0 57f08201 5730005e d730005e 5740030a  W...W0.^.0.^W@..
 105e0 d740130a d700100a d740130a a7700402  .@.......@...p..
 105f0 13048400 93026000 57f00200 1303f0ff  ......`.W.......
 10600 5730005e 5730010e 5740030e 27000402  W0.^W0..W@..'...
 10610 13048400 93023000 57f08200 1303f0ff  ......0.W.......
 10620 5730005e 5730010e 5740030e 27500402  W0.^W0..W@..'P..
 10630 13048400 93022000 57f00201 1303f0ff  ...... .W.......
 10640 5730005e 5730010e 5740030e 27600402  W0.^W0..W@..'`..
 10650 13048400 93021000 57f08201 1303f0ff  ........W.......
 10660 5730005e 5730010e 5740030e 27700402  W0.^W0..W@..'p..
 10670 13048400 93026000 57f00200 93026000  ......`.W.....`.
 10680 57b0035e d7b0035e 57001026 57c00226  W..^...^W..&W..&
 10690 57b00726 27000402 13048400 93024000  W..&'.........@.
 106a0 57f08200 93026000 57b0035e d7b0035e  W.....`.W..^...^
 106b0 57001026 57c00226 57b00726 27500402  W..&W..&W..&'P..
 106c0 13048400 93022000 57f00201 93026000  ...... .W.....`.
 106d0 57b0035e d7b0035e 57001026 57c00226  W..^...^W..&W..&
 106e0 57b00726 27600402 13048400 93021000  W..&'`..........
 106f0 57f08201 93026000 57b0035e d7b0035e  W.....`.W..^...^
 10700 57001026 57c00226 57b00726 27700402  W..&W..&W..&'p..
 10710 13048400 17050000 1305056a 9302c000  ...........j....
 10720 57f01200 93026000 57b0035e 07010502  W.....`.W..^....
 10730 5700202a 57c0022a 57b0072a 27000402  W. *W..*W..*'...
 10740 1304c400 17050000 13050567 93024000  ...........g..@.
 10750 57f08200 93026000 57b0035e 07010502  W.....`.W..^....
 10760 5700202a 57c0022a 57b0072a 27500402  W. *W..*W..*'P..
 10770 13048400 17050000 13050564 93022000  ...........d.. .
 10780 57f00201 93026000 57b0035e 07010502  W.....`.W..^....
 10790 5700202a 57c0022a 57b0072a 27600402  W. *W..*W..*'`..
 107a0 13048400 17050000 13050561 93021000  ...........a....
 107b0 57f08201 93026000 57b0035e 07010502  W.....`.W..^....
 107c0 5700202a 57c0022a 57b0072a 27700402  W. *W..*W..*'p..
 107d0 13048400 93026000 57f00200 93026000  ......`.W.....`.
 107e0 57b0035e d7b0035e 5700102e 57c0022e  W..^...^W...W...
 107f0 57b0072e 27000402 13048400 93024000  W...'.........@.
 10800 57f08200 93026000 57b0035e d7b0035e  W.....`.W..^...^
 10810 5700102e 57c0022e 57b0072e 27500402  W...W...W...'P..
 10820 13048400 93022000 57f00201 93026000  ...... .W.....`.
 10830 57b0035e d7b0035e 5700102e 57c0022e  W..^...^W...W...
 10840 57b0072e 27600402 13048400 93021000  W...'`..........
 10850 57f08201 93026000 57b0035e d7b0035e  W.....`.W..^...^
 10860 5700102e 57c0022e 57b0072e 27700402  W...W...W...'p..
 10870 13048400 93022000 57f00200 57b0025e  ...... .W...W..^
 10880 d7b0035e 57001016 27000402 13044400  ...^W...'.....D.
 10890 93022000 57f08200 57b0025e d7b0035e  .. .W...W..^...^
 108a0 57001016 27500402 13044400 93022000  W...'P....D... .
 108b0 57f00201 57b0025e d7b0035e 57001016  W...W..^...^W...
 108c0 27600402 13048400 93021000 57f08201  '`..........W...
 108d0 57b0025e d7b0035e 57001016 27700402  W..^...^W...'p..
 108e0 13048400 93022000 57f00200 57b0025e  ...... .W...W..^
 108f0 d7b0035e 5700101e 27000402 13044400  ...^W...'.....D.
 10900 93022000 57f08200 57b0025e d7b0035e  .. .W...W..^...^
 10910 5700101e 27500402 13044400 93022000  W...'P....D... .
 10920 57f00201 57b0025e d7b0035e 5700101e  W...W..^...^W...
 10930 27600402 13048400 93021000 57f08201  '`..........W...
 10940 57b0035e d7b0035e 5700101e 27700402  W..^...^W...'p..
 10950 13048400 93023000 57f08200 1303f0ff  ......0.W.......
 10960 5730015e 57600396 27500402 13048400  W0.^W`..'P......
 10970 17050000 13054544 93024000 57f01201  ......ED..@.W...
 10980 5734005e 93022000 07640502 57e08296  W4.^.. ..d..W...
 10990 27600402 13040401 17050000 1305c541  '`.............A
 109a0 93022000 57f09201 5734005e 93022000  .. .W...W4.^.. .
 109b0 07740502 57e08296 27700402 13040401  .t..W...'p......
 109c0 93026000 57f00200 1303f0ff 5730015e  ..`.W.......W0.^
 109d0 5760039e 27000402 13048400 93023000  W`..'.........0.
 109e0 57f08200 1303f0ff 5730015e 5760039e  W.......W0.^W`..
 109f0 27500402 13048400 17050000 1305c53b  'P.............;
 10a00 93024000 57f01201 5734005e 93022000  ..@.W...W4.^.. .
 10a10 07640502 57e0829e 27600402 13040401  .d..W...'`......
 10a20 17050000 13054539 93022000 57f09201  ......E9.. .W...
 10a30 5734005e 93022000 07740502 57e0829e  W4.^.. ..t..W...
 10a40 27700402 13040401 17050000 1305c536  'p.............6
 10a50 93020001 57f01200 07020502 93025000  ....W.........P.
 10a60 57c2423e 27020402 13040401 17050000  W.B>'...........
 10a70 13058534 93024000 57f01201 07620502  ...4..@.W....b..
 10a80 5732413e 27620402 13040401 17050000  W2A>'b..........
 10a90 13058532 93024000 13035000 57f01201  ...2..@...P.W...
 10aa0 07620502 5762433e 27620402 13040401  .b..WbC>'b......
 10ab0 17050000 13054530 93020001 57f01200  ......E0....W...
 10ac0 07020502 93025000 57c2423a 27020402  ......P.W.B:'...
 10ad0 13040401 17050000 1305052e 93024000  ..............@.
 10ae0 57f01201 07620502 5732413a 27620402  W....b..W2A:'b..
 10af0 13040401 17050000 1305052c 93024000  ...........,..@.
 10b00 13035000 57f01201 07620502 5762433a  ..P.W....b..WbC:
 10b10 27620402 13040401 17050000 1305c529  'b.............)
 10b20 93024000 57f08200 93026000 57b0035e  ..@.W.....`.W..^
 10b30 07510502 57002096 27500402 13048400  .Q..W. .'P......
 10b40 17050000 13054527 93024000 57f08200  ......E'..@.W...
 10b50 93026000 57b0035e 07510502 570020a6  ..`.W..^.Q..W. .
 10b60 27500402 13048400 17050000 1305c524  'P.............$
 10b70 93024000 57f08200 93026000 57b0035e  ..@.W.....`.W..^
 10b80 07510502 570020a2 27500402 13048400  .Q..W. .'P......
 10b90 93027000 57f00200 1303f0ff 57b0025e  ..p.W.......W..^
 10ba0 57400302 27000402 13048400 93023000  W@..'.........0.
 10bb0 57f08200 1303f0ff 57b0025e 57400302  W.......W..^W@..
 10bc0 27500402 13048400 93022000 57f00201  'P........ .W...
 10bd0 1303f0ff 57b0025e 57400302 27600402  ....W..^W@..'`..
 10be0 13048400 93021000 57f08201 1303d0f9  ........W.......
 10bf0 57b0025e 57400302 27700402 13048400  W..^W@..'p......
 10c00 93027000 57f00200 1303f0ff 93034000  ..p.W.........@.
 10c10 57b0025e 57400302 2700740a 1304c401  W..^W@..'.t.....
 10c20 93023000 57f08200 1303f0ff 93034000  ..0.W.........@.
 10c30 57b0025e 57400302 2750740a 13044401  W..^W@..'Pt...D.
 10c40 93022000 57f00201 1303f0ff 93034000  .. .W.........@.
 10c50 57b0025e 57400302 2760740a 13044401  W..^W@..'`t...D.
 10c60 93021000 57f08201 1303d0f9 93034000  ....W.........@.
 10c70 57b0025e 57400302 2770740a 13048400  W..^W@..'pt.....
 10c80 93022000 57f09201 1303d0f9 93034000  .. .W.........@.
 10c90 57b0025e 57400302 2770740a 13048402  W..^W@..'pt.....
 10ca0 93023000 57f0a201 1303d0f9 93034000  ..0.W.........@.
 10cb0 57b0025e 57400302 2770740a 13048404  W..^W@..'pt.....
 10cc0 93025000 57f0b201 1303d0f9 93034000  ..P.W.........@.
 10cd0 57b0025e 57400302 2770740a 1304040a  W..^W@..'pt.....
 10ce0 17050000 1305450d 93023000 57f00200  ......E...0.W...
 10cf0 5734005e 07040502 27040402 13044400  W4.^....'.....D.
 10d00 17050000 1305450b 93023000 57f08200  ......E...0.W...
 10d10 5734005e 07540502 27540402 13048400  W4.^.T..'T......
 10d20 17050000 13054509 93022000 57f00201  ......E... .W...
 10d30 5734005e 07640502 27640402 13048400  W4.^.d..'d......
 10d40 17050000 13054507 93021000 57f08201  ......E.....W...
 10d50 5734005e 07740502 27740402 13044400  W4.^.t..'t....D.
 10d60 17050000 13054505 93025000 13034000  ......E...P...@.
 10d70 57f00200 5734005e 0704650a 27040402  W...W4.^..e.'...
 10d80 13048400 17050000 13050503 93023000  ..............0.
 10d90 13032000 57f01201 5734005e 0764650a  .. .W...W4.^.de.
 10da0 27640402 1304c400 03240100 13014100  'd.......$....A.
 10db0 67800000                             g...            
Contents of section .rodata:
 10db4 00102030 40506070 8090a0b0 c0d0e0f0  .. 0@P`p........
 10dc4 87000000 55555555 55550000 78563412  ....UUUUUU..xV4.
 10dd4 a9cbed00                             ....            
Contents of section .comment:
 0000 4743433a 20282920 31342e32 2e3000    GCC: () 14.2.0. 
Contents of section .riscv.attributes:
 0000 41630000 00726973 63760001 59000000  Ac...riscv..Y...
 0010 04100572 76333269 3270315f 6d327030  ...rv32i2p1_m2p0
 0020 5f663270 325f7a69 63737232 70305f7a  _f2p2_zicsr2p0_z
 0030 6d6d756c 3170305f 7a766533 32783170  mmul1p0_zve32x1p
 0040 305f7a76 65363478 3170305f 7a766c33  0_zve64x1p0_zvl3
 0050 32623170 305f7a76 6c363462 31703000  2b1p0_zvl64b1p0.
 0060 08010a0b                             ....            

Disassembly of section .text0:

00000000 <_start>:
   0:	00000093          	li	ra,0
   4:	00000113          	li	sp,0
   8:	00000193          	li	gp,0
   c:	00000213          	li	tp,0
  10:	00000293          	li	t0,0
  14:	00000313          	li	t1,0
  18:	00000393          	li	t2,0
  1c:	00000413          	li	s0,0
  20:	00000493          	li	s1,0
  24:	00000513          	li	a0,0
  28:	00000593          	li	a1,0
  2c:	00000613          	li	a2,0
  30:	00000693          	li	a3,0
  34:	00000713          	li	a4,0
  38:	00000793          	li	a5,0
  3c:	00000813          	li	a6,0
  40:	00000893          	li	a7,0
  44:	00000913          	li	s2,0
  48:	00000993          	li	s3,0
  4c:	00000a13          	li	s4,0
  50:	00000a93          	li	s5,0
  54:	00000b13          	li	s6,0
  58:	00000b93          	li	s7,0
  5c:	00000c13          	li	s8,0
  60:	00000c93          	li	s9,0
  64:	00000d13          	li	s10,0
  68:	00000d93          	li	s11,0
  6c:	00000e13          	li	t3,0
  70:	00000e93          	li	t4,0
  74:	00000f13          	li	t5,0
  78:	00000f93          	li	t6,0
  7c:	00020197          	auipc	gp,0x20
  80:	78418193          	addi	gp,gp,1924 # 20800 <_gp>

00000084 <init_bss>:
  84:	00020517          	auipc	a0,0x20
  88:	f7c50513          	addi	a0,a0,-132 # 20000 <__sbss_end>
  8c:	00020597          	auipc	a1,0x20
  90:	f7058593          	addi	a1,a1,-144 # 1fffc <__rodata_end+0xf224>
  94:	00000613          	li	a2,0
  98:	070000ef          	jal	ra,108 <fill_block>

0000009c <init_sbss>:
  9c:	00020517          	auipc	a0,0x20
  a0:	f6450513          	addi	a0,a0,-156 # 20000 <__sbss_end>
  a4:	00020597          	auipc	a1,0x20
  a8:	f5858593          	addi	a1,a1,-168 # 1fffc <__rodata_end+0xf224>
  ac:	00000613          	li	a2,0
  b0:	058000ef          	jal	ra,108 <fill_block>

000000b4 <write_stack_pattern>:
  b4:	00020517          	auipc	a0,0x20
  b8:	f4c50513          	addi	a0,a0,-180 # 20000 <__sbss_end>
  bc:	00021597          	auipc	a1,0x21
  c0:	f4058593          	addi	a1,a1,-192 # 20ffc <_gp+0x7fc>
  c4:	00000613          	li	a2,0
  c8:	040000ef          	jal	ra,108 <fill_block>

000000cc <init_stack>:
  cc:	00021117          	auipc	sp,0x21
  d0:	f3410113          	addi	sp,sp,-204 # 21000 <__stack>

000000d4 <write_test_pattern>:
  d4:	20100517          	auipc	a0,0x20100
  d8:	f2c50513          	addi	a0,a0,-212 # 20100000 <_test_start>
  dc:	20101597          	auipc	a1,0x20101
  e0:	f2058593          	addi	a1,a1,-224 # 20100ffc <_test_start+0xffc>
  e4:	00000613          	li	a2,0
  e8:	020000ef          	jal	ra,108 <fill_block>

000000ec <SystemInit>:
  ec:	030000ef          	jal	ra,11c <boot>
  f0:	0e8100ef          	jal	ra,101d8 <main>

000000f4 <SystemExit>:
  f4:	00040297          	auipc	t0,0x40
  f8:	f0828293          	addi	t0,t0,-248 # 3fffc <_sim_end>
  fc:	fff00313          	li	t1,-1
 100:	0062a023          	sw	t1,0(t0)

00000104 <dead_loop>:
 104:	0000006f          	j	104 <dead_loop>

00000108 <fill_block>:
 108:	00a5e863          	bltu	a1,a0,118 <fb_end>
 10c:	00c52023          	sw	a2,0(a0)
 110:	00450513          	addi	a0,a0,4
 114:	ff5ff06f          	j	108 <fill_block>

00000118 <fb_end>:
 118:	00008067          	ret

0000011c <boot>:
 11c:	fe010113          	addi	sp,sp,-32
 120:	00112e23          	sw	ra,28(sp)
 124:	00812c23          	sw	s0,24(sp)
 128:	02010413          	addi	s0,sp,32
 12c:	100207b7          	lui	a5,0x10020
 130:	fef42623          	sw	a5,-20(s0)
 134:	30046073          	csrsi	mstatus,8
 138:	00001fb7          	lui	t6,0x1
 13c:	800f8f93          	addi	t6,t6,-2048 # 800 <boot+0x6e4>
 140:	304fa073          	csrs	mie,t6
 144:	fec42783          	lw	a5,-20(s0)
 148:	20078793          	addi	a5,a5,512 # 10020200 <_end+0xffe0200>
 14c:	20000737          	lui	a4,0x20000
 150:	00070713          	mv	a4,a4
 154:	00e7a023          	sw	a4,0(a5)
 158:	fec42783          	lw	a5,-20(s0)
 15c:	30078793          	addi	a5,a5,768
 160:	00010737          	lui	a4,0x10
 164:	00070713          	mv	a4,a4
 168:	00e7a023          	sw	a4,0(a5)
 16c:	200017b7          	lui	a5,0x20001
 170:	dd878713          	addi	a4,a5,-552 # 20000dd8 <_dram_i_end>
 174:	200007b7          	lui	a5,0x20000
 178:	00078793          	mv	a5,a5
 17c:	40f707b3          	sub	a5,a4,a5
 180:	0027d713          	srli	a4,a5,0x2
 184:	fec42783          	lw	a5,-20(s0)
 188:	40078793          	addi	a5,a5,1024 # 20000400 <_dram_i_start+0x400>
 18c:	00170713          	addi	a4,a4,1 # 10001 <_imem_start+0x1>
 190:	00e7a023          	sw	a4,0(a5)
 194:	fec42783          	lw	a5,-20(s0)
 198:	10078793          	addi	a5,a5,256
 19c:	00100713          	li	a4,1
 1a0:	00e7a023          	sw	a4,0(a5)
 1a4:	10500073          	wfi
 1a8:	fec42783          	lw	a5,-20(s0)
 1ac:	20078793          	addi	a5,a5,512
 1b0:	20101737          	lui	a4,0x20101
 1b4:	00070713          	mv	a4,a4
 1b8:	00e7a023          	sw	a4,0(a5)
 1bc:	fec42783          	lw	a5,-20(s0)
 1c0:	30078793          	addi	a5,a5,768
 1c4:	00020737          	lui	a4,0x20
 1c8:	00070713          	mv	a4,a4
 1cc:	00e7a023          	sw	a4,0(a5)
 1d0:	000207b7          	lui	a5,0x20
 1d4:	00078713          	mv	a4,a5
 1d8:	000207b7          	lui	a5,0x20
 1dc:	00078793          	mv	a5,a5
 1e0:	40f707b3          	sub	a5,a4,a5
 1e4:	0027d713          	srli	a4,a5,0x2
 1e8:	fec42783          	lw	a5,-20(s0)
 1ec:	40078793          	addi	a5,a5,1024 # 20400 <__sbss_end+0x400>
 1f0:	00170713          	addi	a4,a4,1 # 20001 <__sbss_end+0x1>
 1f4:	00e7a023          	sw	a4,0(a5)
 1f8:	fec42783          	lw	a5,-20(s0)
 1fc:	10078793          	addi	a5,a5,256
 200:	00100713          	li	a4,1
 204:	00e7a023          	sw	a4,0(a5)
 208:	10500073          	wfi
 20c:	fec42783          	lw	a5,-20(s0)
 210:	20078793          	addi	a5,a5,512
 214:	20101737          	lui	a4,0x20101
 218:	00070713          	mv	a4,a4
 21c:	00e7a023          	sw	a4,0(a5)
 220:	fec42783          	lw	a5,-20(s0)
 224:	30078793          	addi	a5,a5,768
 228:	00020737          	lui	a4,0x20
 22c:	00070713          	mv	a4,a4
 230:	00e7a023          	sw	a4,0(a5)
 234:	000207b7          	lui	a5,0x20
 238:	00078713          	mv	a4,a5
 23c:	000207b7          	lui	a5,0x20
 240:	00078793          	mv	a5,a5
 244:	40f707b3          	sub	a5,a4,a5
 248:	0027d713          	srli	a4,a5,0x2
 24c:	fec42783          	lw	a5,-20(s0)
 250:	40078793          	addi	a5,a5,1024 # 20400 <__sbss_end+0x400>
 254:	00170713          	addi	a4,a4,1 # 20001 <__sbss_end+0x1>
 258:	00e7a023          	sw	a4,0(a5)
 25c:	fec42783          	lw	a5,-20(s0)
 260:	10078793          	addi	a5,a5,256
 264:	00100713          	li	a4,1
 268:	00e7a023          	sw	a4,0(a5)
 26c:	10500073          	wfi
 270:	00000013          	nop
 274:	01c12083          	lw	ra,28(sp)
 278:	01812403          	lw	s0,24(sp)
 27c:	02010113          	addi	sp,sp,32
 280:	00008067          	ret

Disassembly of section .text1:

00010000 <_imem_start>:
   10000:	f8410113          	addi	sp,sp,-124
   10004:	00112023          	sw	ra,0(sp)
   10008:	00212223          	sw	sp,4(sp)
   1000c:	00312423          	sw	gp,8(sp)
   10010:	00412623          	sw	tp,12(sp)
   10014:	00512823          	sw	t0,16(sp)
   10018:	00612a23          	sw	t1,20(sp)
   1001c:	00712c23          	sw	t2,24(sp)
   10020:	00812e23          	sw	s0,28(sp)
   10024:	02912023          	sw	s1,32(sp)
   10028:	02a12223          	sw	a0,36(sp)
   1002c:	02b12423          	sw	a1,40(sp)
   10030:	02c12623          	sw	a2,44(sp)
   10034:	02d12823          	sw	a3,48(sp)
   10038:	02e12a23          	sw	a4,52(sp)
   1003c:	02f12c23          	sw	a5,56(sp)
   10040:	03012e23          	sw	a6,60(sp)
   10044:	05112023          	sw	a7,64(sp)
   10048:	05212223          	sw	s2,68(sp)
   1004c:	05312423          	sw	s3,72(sp)
   10050:	05412623          	sw	s4,76(sp)
   10054:	05512823          	sw	s5,80(sp)
   10058:	05612a23          	sw	s6,84(sp)
   1005c:	05712c23          	sw	s7,88(sp)
   10060:	05812e23          	sw	s8,92(sp)
   10064:	07912023          	sw	s9,96(sp)
   10068:	07a12223          	sw	s10,100(sp)
   1006c:	07b12423          	sw	s11,104(sp)
   10070:	07c12623          	sw	t3,108(sp)
   10074:	07d12823          	sw	t4,112(sp)
   10078:	07e12a23          	sw	t5,116(sp)
   1007c:	07f12c23          	sw	t6,120(sp)
   10080:	104000ef          	jal	ra,10184 <trap_handler>
   10084:	00012083          	lw	ra,0(sp)
   10088:	00412103          	lw	sp,4(sp)
   1008c:	00812183          	lw	gp,8(sp)
   10090:	00c12203          	lw	tp,12(sp)
   10094:	01012283          	lw	t0,16(sp)
   10098:	01412303          	lw	t1,20(sp)
   1009c:	01812383          	lw	t2,24(sp)
   100a0:	01c12403          	lw	s0,28(sp)
   100a4:	02012483          	lw	s1,32(sp)
   100a8:	02412503          	lw	a0,36(sp)
   100ac:	02812583          	lw	a1,40(sp)
   100b0:	02c12603          	lw	a2,44(sp)
   100b4:	03012683          	lw	a3,48(sp)
   100b8:	03412703          	lw	a4,52(sp)
   100bc:	03812783          	lw	a5,56(sp)
   100c0:	03c12803          	lw	a6,60(sp)
   100c4:	04012883          	lw	a7,64(sp)
   100c8:	04412903          	lw	s2,68(sp)
   100cc:	04812983          	lw	s3,72(sp)
   100d0:	04c12a03          	lw	s4,76(sp)
   100d4:	05012a83          	lw	s5,80(sp)
   100d8:	05412b03          	lw	s6,84(sp)
   100dc:	05812b83          	lw	s7,88(sp)
   100e0:	05c12c03          	lw	s8,92(sp)
   100e4:	06012c83          	lw	s9,96(sp)
   100e8:	06412d03          	lw	s10,100(sp)
   100ec:	06812d83          	lw	s11,104(sp)
   100f0:	06c12e03          	lw	t3,108(sp)
   100f4:	07012e83          	lw	t4,112(sp)
   100f8:	07412f03          	lw	t5,116(sp)
   100fc:	07812f83          	lw	t6,120(sp)
   10100:	07c10113          	addi	sp,sp,124
   10104:	30200073          	mret

00010108 <timer_interrupt_handler>:
   10108:	fe010113          	addi	sp,sp,-32
   1010c:	00112e23          	sw	ra,28(sp)
   10110:	00812c23          	sw	s0,24(sp)
   10114:	02010413          	addi	s0,sp,32
   10118:	100107b7          	lui	a5,0x10010
   1011c:	fef42623          	sw	a5,-20(s0)
   10120:	30006073          	csrsi	mstatus,0
   10124:	fec42783          	lw	a5,-20(s0)
   10128:	10078793          	addi	a5,a5,256 # 10010100 <_end+0xffd0100>
   1012c:	0007a023          	sw	zero,0(a5)
   10130:	ed1ef06f          	j	0 <_start>
   10134:	00000013          	nop
   10138:	01c12083          	lw	ra,28(sp)
   1013c:	01812403          	lw	s0,24(sp)
   10140:	02010113          	addi	sp,sp,32
   10144:	00008067          	ret

00010148 <external_interrupt_handler>:
   10148:	fe010113          	addi	sp,sp,-32
   1014c:	00112e23          	sw	ra,28(sp)
   10150:	00812c23          	sw	s0,24(sp)
   10154:	02010413          	addi	s0,sp,32
   10158:	100207b7          	lui	a5,0x10020
   1015c:	fef42623          	sw	a5,-20(s0)
   10160:	30006073          	csrsi	mstatus,0
   10164:	fec42783          	lw	a5,-20(s0)
   10168:	10078793          	addi	a5,a5,256 # 10020100 <_end+0xffe0100>
   1016c:	0007a023          	sw	zero,0(a5)
   10170:	00000013          	nop
   10174:	01c12083          	lw	ra,28(sp)
   10178:	01812403          	lw	s0,24(sp)
   1017c:	02010113          	addi	sp,sp,32
   10180:	00008067          	ret

00010184 <trap_handler>:
   10184:	fe010113          	addi	sp,sp,-32
   10188:	00112e23          	sw	ra,28(sp)
   1018c:	00812c23          	sw	s0,24(sp)
   10190:	02010413          	addi	s0,sp,32
   10194:	344027f3          	csrr	a5,mip
   10198:	fef42623          	sw	a5,-20(s0)
   1019c:	fec42783          	lw	a5,-20(s0)
   101a0:	0807f793          	andi	a5,a5,128
   101a4:	00078463          	beqz	a5,101ac <trap_handler+0x28>
   101a8:	f61ff0ef          	jal	ra,10108 <timer_interrupt_handler>
   101ac:	fec42703          	lw	a4,-20(s0)
   101b0:	000017b7          	lui	a5,0x1
   101b4:	80078793          	addi	a5,a5,-2048 # 800 <boot+0x6e4>
   101b8:	00f777b3          	and	a5,a4,a5
   101bc:	00078463          	beqz	a5,101c4 <trap_handler+0x40>
   101c0:	f89ff0ef          	jal	ra,10148 <external_interrupt_handler>
   101c4:	00000013          	nop
   101c8:	01c12083          	lw	ra,28(sp)
   101cc:	01812403          	lw	s0,24(sp)
   101d0:	02010113          	addi	sp,sp,32
   101d4:	00008067          	ret

000101d8 <main>:
   101d8:	ffc10113          	addi	sp,sp,-4
   101dc:	00812023          	sw	s0,0(sp)
   101e0:	200f0417          	auipc	s0,0x200f0
   101e4:	e2040413          	addi	s0,s0,-480 # 20100000 <_test_start>

000101e8 <vadd_e8m8>:
   101e8:	02200293          	li	t0,34
   101ec:	0032f057          	0x32f057
   101f0:	fff00313          	li	t1,-1
   101f4:	02034057          	0x2034057
   101f8:	02034057          	0x2034057
   101fc:	02034057          	0x2034057
   10200:	02034057          	0x2034057
   10204:	02034057          	0x2034057
   10208:	02040027          	0x2040027
   1020c:	02440413          	addi	s0,s0,36

00010210 <vadd_e8m4>:
   10210:	01d00293          	li	t0,29
   10214:	0022f057          	0x22f057
   10218:	00500293          	li	t0,5
   1021c:	ffe00313          	li	t1,-2
   10220:	0202c057          	0x202c057
   10224:	02034057          	0x2034057
   10228:	02034057          	0x2034057
   1022c:	02034057          	0x2034057
   10230:	02034057          	0x2034057
   10234:	02034057          	0x2034057
   10238:	02040027          	0x2040027
   1023c:	02040413          	addi	s0,s0,32

00010240 <vadd_e8m2>:
   10240:	01000293          	li	t0,16
   10244:	0012f057          	0x12f057
   10248:	00a00293          	li	t0,10
   1024c:	00400313          	li	t1,4
   10250:	0202c057          	0x202c057
   10254:	02034057          	0x2034057
   10258:	02034057          	0x2034057
   1025c:	02034057          	0x2034057
   10260:	02034057          	0x2034057
   10264:	02034057          	0x2034057
   10268:	02040027          	0x2040027
   1026c:	01040413          	addi	s0,s0,16

00010270 <vadd_e8m1>:
   10270:	00500293          	li	t0,5
   10274:	0002f057          	0x2f057
   10278:	fec00293          	li	t0,-20
   1027c:	00500313          	li	t1,5
   10280:	0202c057          	0x202c057
   10284:	02034057          	0x2034057
   10288:	02034057          	0x2034057
   1028c:	02034057          	0x2034057
   10290:	02034057          	0x2034057
   10294:	02034057          	0x2034057
   10298:	02034057          	0x2034057
   1029c:	02034057          	0x2034057
   102a0:	02034057          	0x2034057
   102a4:	02034057          	0x2034057
   102a8:	02034057          	0x2034057
   102ac:	02034057          	0x2034057
   102b0:	02034057          	0x2034057
   102b4:	02034057          	0x2034057
   102b8:	02034057          	0x2034057
   102bc:	02034057          	0x2034057
   102c0:	02040027          	0x2040027
   102c4:	00840413          	addi	s0,s0,8

000102c8 <vadd_e16m8>:
   102c8:	01400293          	li	t0,20
   102cc:	00500313          	li	t1,5
   102d0:	00b2f057          	0xb2f057
   102d4:	5e013057          	0x5e013057
   102d8:	02034057          	0x2034057
   102dc:	02034057          	0x2034057
   102e0:	02034057          	0x2034057
   102e4:	02034057          	0x2034057
   102e8:	02034057          	0x2034057
   102ec:	02045027          	0x2045027
   102f0:	02840413          	addi	s0,s0,40

000102f4 <vadd_e16m4>:
   102f4:	00a00293          	li	t0,10
   102f8:	00900313          	li	t1,9
   102fc:	00a2f057          	0xa2f057
   10300:	5e013057          	0x5e013057
   10304:	02034057          	0x2034057
   10308:	02034057          	0x2034057
   1030c:	02034057          	0x2034057
   10310:	02034057          	0x2034057
   10314:	02034057          	0x2034057
   10318:	02045027          	0x2045027
   1031c:	01440413          	addi	s0,s0,20

00010320 <vadd_e16m2>:
   10320:	00500293          	li	t0,5
   10324:	00500313          	li	t1,5
   10328:	0092f057          	0x92f057
   1032c:	5e043057          	0x5e043057
   10330:	02034057          	0x2034057
   10334:	02034057          	0x2034057
   10338:	02034057          	0x2034057
   1033c:	02034057          	0x2034057
   10340:	02034057          	0x2034057
   10344:	02045027          	0x2045027
   10348:	00c40413          	addi	s0,s0,12

0001034c <vadd_e16m1>:
   1034c:	00200293          	li	t0,2
   10350:	fff00313          	li	t1,-1
   10354:	0082f057          	0x82f057
   10358:	5e013057          	0x5e013057
   1035c:	02034057          	0x2034057
   10360:	02034057          	0x2034057
   10364:	02034057          	0x2034057
   10368:	02034057          	0x2034057
   1036c:	02034057          	0x2034057
   10370:	02045027          	0x2045027
   10374:	00440413          	addi	s0,s0,4

00010378 <vadd_e32m8>:
   10378:	01400293          	li	t0,20
   1037c:	00500313          	li	t1,5
   10380:	00b2f057          	0xb2f057
   10384:	5e013057          	0x5e013057
   10388:	02034057          	0x2034057
   1038c:	02034057          	0x2034057
   10390:	02034057          	0x2034057
   10394:	02034057          	0x2034057
   10398:	02034057          	0x2034057
   1039c:	02045027          	0x2045027
   103a0:	02840413          	addi	s0,s0,40

000103a4 <vadd_e32m4>:
   103a4:	00a00293          	li	t0,10
   103a8:	00900313          	li	t1,9
   103ac:	00a2f057          	0xa2f057
   103b0:	5e013057          	0x5e013057
   103b4:	02034057          	0x2034057
   103b8:	02034057          	0x2034057
   103bc:	02034057          	0x2034057
   103c0:	02034057          	0x2034057
   103c4:	02034057          	0x2034057
   103c8:	02045027          	0x2045027
   103cc:	01440413          	addi	s0,s0,20

000103d0 <vadd_e32m2>:
   103d0:	00500293          	li	t0,5
   103d4:	00500313          	li	t1,5
   103d8:	0092f057          	0x92f057
   103dc:	5e043057          	0x5e043057
   103e0:	02034057          	0x2034057
   103e4:	02034057          	0x2034057
   103e8:	02034057          	0x2034057
   103ec:	02034057          	0x2034057
   103f0:	02034057          	0x2034057
   103f4:	02045027          	0x2045027
   103f8:	00c40413          	addi	s0,s0,12

000103fc <vadd_e32m1>:
   103fc:	00200293          	li	t0,2
   10400:	fff00313          	li	t1,-1
   10404:	0082f057          	0x82f057
   10408:	5e013057          	0x5e013057
   1040c:	02034057          	0x2034057
   10410:	02034057          	0x2034057
   10414:	02034057          	0x2034057
   10418:	02034057          	0x2034057
   1041c:	02034057          	0x2034057
   10420:	02045027          	0x2045027
   10424:	00440413          	addi	s0,s0,4

00010428 <vadd_e64m8>:
   10428:	00800293          	li	t0,8
   1042c:	00a00313          	li	t1,10
   10430:	01b2f057          	0x1b2f057
   10434:	5e00b057          	0x5e00b057
   10438:	02034057          	0x2034057
   1043c:	02034057          	0x2034057
   10440:	02034057          	0x2034057
   10444:	02034057          	0x2034057
   10448:	02034057          	0x2034057
   1044c:	02047027          	0x2047027
   10450:	04040413          	addi	s0,s0,64

00010454 <vadd_e64m4>:
   10454:	00400293          	li	t0,4
   10458:	00f00313          	li	t1,15
   1045c:	01a2f057          	0x1a2f057
   10460:	5e01b057          	0x5e01b057
   10464:	02034057          	0x2034057
   10468:	02034057          	0x2034057
   1046c:	02034057          	0x2034057
   10470:	02034057          	0x2034057
   10474:	02034057          	0x2034057
   10478:	02047027          	0x2047027
   1047c:	02040413          	addi	s0,s0,32

00010480 <vadd_e64m2>:
   10480:	00200293          	li	t0,2
   10484:	01400313          	li	t1,20
   10488:	0192f057          	0x192f057
   1048c:	5e02b057          	0x5e02b057
   10490:	02034057          	0x2034057
   10494:	02034057          	0x2034057
   10498:	02034057          	0x2034057
   1049c:	02034057          	0x2034057
   104a0:	02034057          	0x2034057
   104a4:	02047027          	0x2047027
   104a8:	01040413          	addi	s0,s0,16

000104ac <vadd_e64m1>:
   104ac:	00100293          	li	t0,1
   104b0:	ffa00313          	li	t1,-6
   104b4:	0182f057          	0x182f057
   104b8:	5e02b057          	0x5e02b057
   104bc:	02034057          	0x2034057
   104c0:	02034057          	0x2034057
   104c4:	02034057          	0x2034057
   104c8:	02034057          	0x2034057
   104cc:	02034057          	0x2034057
   104d0:	02047027          	0x2047027
   104d4:	00840413          	addi	s0,s0,8

000104d8 <vsub_e8m1>:
   104d8:	00600293          	li	t0,6
   104dc:	0002f057          	0x2f057
   104e0:	fff00313          	li	t1,-1
   104e4:	5e003057          	0x5e003057
   104e8:	5e0030d7          	0x5e0030d7
   104ec:	0a034057          	0xa034057
   104f0:	0a1340d7          	0xa1340d7
   104f4:	0a1000d7          	0xa1000d7
   104f8:	0a1340d7          	0xa1340d7
   104fc:	020400a7          	0x20400a7
   10500:	00840413          	addi	s0,s0,8

00010504 <vsub_e16m8>:
   10504:	01000293          	li	t0,16
   10508:	01400313          	li	t1,20
   1050c:	00b2f057          	0xb2f057
   10510:	5e053057          	0x5e053057
   10514:	5e02b457          	0x5e02b457
   10518:	0a040057          	0xa040057
   1051c:	0a034057          	0xa034057
   10520:	02045027          	0x2045027
   10524:	02040413          	addi	s0,s0,32

00010528 <vsub_e16m4>:
   10528:	00800293          	li	t0,8
   1052c:	01e00313          	li	t1,30
   10530:	00a2f057          	0xa2f057
   10534:	5e013057          	0x5e013057
   10538:	5e03b457          	0x5e03b457
   1053c:	0a040057          	0xa040057
   10540:	0a034057          	0xa034057
   10544:	02045027          	0x2045027
   10548:	01040413          	addi	s0,s0,16

0001054c <vsub_e16m2>:
   1054c:	00400293          	li	t0,4
   10550:	00f00313          	li	t1,15
   10554:	0092f057          	0x92f057
   10558:	5e01b057          	0x5e01b057
   1055c:	5e053457          	0x5e053457
   10560:	0a040057          	0xa040057
   10564:	0a034057          	0xa034057
   10568:	02045027          	0x2045027
   1056c:	00840413          	addi	s0,s0,8

00010570 <vsub_e16m1>:
   10570:	00200293          	li	t0,2
   10574:	fff00313          	li	t1,-1
   10578:	0082f057          	0x82f057
   1057c:	5e003057          	0x5e003057
   10580:	5e0030d7          	0x5e0030d7
   10584:	0a034057          	0xa034057
   10588:	0a1340d7          	0xa1340d7
   1058c:	0a1000d7          	0xa1000d7
   10590:	0a1340d7          	0xa1340d7
   10594:	020450a7          	0x20450a7
   10598:	00440413          	addi	s0,s0,4

0001059c <vsub_e32m1>:
   1059c:	00200293          	li	t0,2
   105a0:	fff00313          	li	t1,-1
   105a4:	0102f057          	0x102f057
   105a8:	5e003057          	0x5e003057
   105ac:	5e0030d7          	0x5e0030d7
   105b0:	0a034057          	0xa034057
   105b4:	0a1340d7          	0xa1340d7
   105b8:	0a1000d7          	0xa1000d7
   105bc:	0a1340d7          	0xa1340d7
   105c0:	020460a7          	0x20460a7
   105c4:	00840413          	addi	s0,s0,8

000105c8 <vsub_e64m1>:
   105c8:	00100293          	li	t0,1
   105cc:	fff00313          	li	t1,-1
   105d0:	0182f057          	0x182f057
   105d4:	5e003057          	0x5e003057
   105d8:	5e0030d7          	0x5e0030d7
   105dc:	0a034057          	0xa034057
   105e0:	0a1340d7          	0xa1340d7
   105e4:	0a1000d7          	0xa1000d7
   105e8:	0a1340d7          	0xa1340d7
   105ec:	020470a7          	0x20470a7
   105f0:	00840413          	addi	s0,s0,8

000105f4 <vrsub_e8m1>:
   105f4:	00600293          	li	t0,6
   105f8:	0002f057          	0x2f057
   105fc:	fff00313          	li	t1,-1
   10600:	5e003057          	0x5e003057
   10604:	0e013057          	0xe013057
   10608:	0e034057          	0xe034057
   1060c:	02040027          	0x2040027
   10610:	00840413          	addi	s0,s0,8

00010614 <vrsub_e16m1>:
   10614:	00300293          	li	t0,3
   10618:	0082f057          	0x82f057
   1061c:	fff00313          	li	t1,-1
   10620:	5e003057          	0x5e003057
   10624:	0e013057          	0xe013057
   10628:	0e034057          	0xe034057
   1062c:	02045027          	0x2045027
   10630:	00840413          	addi	s0,s0,8

00010634 <vrsub_e32m1>:
   10634:	00200293          	li	t0,2
   10638:	0102f057          	0x102f057
   1063c:	fff00313          	li	t1,-1
   10640:	5e003057          	0x5e003057
   10644:	0e013057          	0xe013057
   10648:	0e034057          	0xe034057
   1064c:	02046027          	0x2046027
   10650:	00840413          	addi	s0,s0,8

00010654 <vrsub_e64m1>:
   10654:	00100293          	li	t0,1
   10658:	0182f057          	0x182f057
   1065c:	fff00313          	li	t1,-1
   10660:	5e003057          	0x5e003057
   10664:	0e013057          	0xe013057
   10668:	0e034057          	0xe034057
   1066c:	02047027          	0x2047027
   10670:	00840413          	addi	s0,s0,8

00010674 <vand_e8m1>:
   10674:	00600293          	li	t0,6
   10678:	0002f057          	0x2f057
   1067c:	00600293          	li	t0,6
   10680:	5e03b057          	0x5e03b057
   10684:	5e03b0d7          	0x5e03b0d7
   10688:	26100057          	0x26100057
   1068c:	2602c057          	0x2602c057
   10690:	2607b057          	0x2607b057
   10694:	02040027          	0x2040027
   10698:	00840413          	addi	s0,s0,8

0001069c <vand_e16m1>:
   1069c:	00400293          	li	t0,4
   106a0:	0082f057          	0x82f057
   106a4:	00600293          	li	t0,6
   106a8:	5e03b057          	0x5e03b057
   106ac:	5e03b0d7          	0x5e03b0d7
   106b0:	26100057          	0x26100057
   106b4:	2602c057          	0x2602c057
   106b8:	2607b057          	0x2607b057
   106bc:	02045027          	0x2045027
   106c0:	00840413          	addi	s0,s0,8

000106c4 <vand_e32m1>:
   106c4:	00200293          	li	t0,2
   106c8:	0102f057          	0x102f057
   106cc:	00600293          	li	t0,6
   106d0:	5e03b057          	0x5e03b057
   106d4:	5e03b0d7          	0x5e03b0d7
   106d8:	26100057          	0x26100057
   106dc:	2602c057          	0x2602c057
   106e0:	2607b057          	0x2607b057
   106e4:	02046027          	0x2046027
   106e8:	00840413          	addi	s0,s0,8

000106ec <vand_e64m1>:
   106ec:	00100293          	li	t0,1
   106f0:	0182f057          	0x182f057
   106f4:	00600293          	li	t0,6
   106f8:	5e03b057          	0x5e03b057
   106fc:	5e03b0d7          	0x5e03b0d7
   10700:	26100057          	0x26100057
   10704:	2602c057          	0x2602c057
   10708:	2607b057          	0x2607b057
   1070c:	02047027          	0x2047027
   10710:	00840413          	addi	s0,s0,8

00010714 <vor_e8m2>:
   10714:	00000517          	auipc	a0,0x0
   10718:	6a050513          	addi	a0,a0,1696 # 10db4 <__rodata_start>
   1071c:	00c00293          	li	t0,12
   10720:	0012f057          	0x12f057
   10724:	00600293          	li	t0,6
   10728:	5e03b057          	0x5e03b057
   1072c:	02050107          	0x2050107
   10730:	2a200057          	0x2a200057
   10734:	2a02c057          	0x2a02c057
   10738:	2a07b057          	0x2a07b057
   1073c:	02040027          	0x2040027
   10740:	00c40413          	addi	s0,s0,12

00010744 <vor_e16m1>:
   10744:	00000517          	auipc	a0,0x0
   10748:	67050513          	addi	a0,a0,1648 # 10db4 <__rodata_start>
   1074c:	00400293          	li	t0,4
   10750:	0082f057          	0x82f057
   10754:	00600293          	li	t0,6
   10758:	5e03b057          	0x5e03b057
   1075c:	02050107          	0x2050107
   10760:	2a200057          	0x2a200057
   10764:	2a02c057          	0x2a02c057
   10768:	2a07b057          	0x2a07b057
   1076c:	02045027          	0x2045027
   10770:	00840413          	addi	s0,s0,8

00010774 <vor_e32m1>:
   10774:	00000517          	auipc	a0,0x0
   10778:	64050513          	addi	a0,a0,1600 # 10db4 <__rodata_start>
   1077c:	00200293          	li	t0,2
   10780:	0102f057          	0x102f057
   10784:	00600293          	li	t0,6
   10788:	5e03b057          	0x5e03b057
   1078c:	02050107          	0x2050107
   10790:	2a200057          	0x2a200057
   10794:	2a02c057          	0x2a02c057
   10798:	2a07b057          	0x2a07b057
   1079c:	02046027          	0x2046027
   107a0:	00840413          	addi	s0,s0,8

000107a4 <vor_e64m1>:
   107a4:	00000517          	auipc	a0,0x0
   107a8:	61050513          	addi	a0,a0,1552 # 10db4 <__rodata_start>
   107ac:	00100293          	li	t0,1
   107b0:	0182f057          	0x182f057
   107b4:	00600293          	li	t0,6
   107b8:	5e03b057          	0x5e03b057
   107bc:	02050107          	0x2050107
   107c0:	2a200057          	0x2a200057
   107c4:	2a02c057          	0x2a02c057
   107c8:	2a07b057          	0x2a07b057
   107cc:	02047027          	0x2047027
   107d0:	00840413          	addi	s0,s0,8

000107d4 <vxor_e8m1>:
   107d4:	00600293          	li	t0,6
   107d8:	0002f057          	0x2f057
   107dc:	00600293          	li	t0,6
   107e0:	5e03b057          	0x5e03b057
   107e4:	5e03b0d7          	0x5e03b0d7
   107e8:	2e100057          	0x2e100057
   107ec:	2e02c057          	0x2e02c057
   107f0:	2e07b057          	0x2e07b057
   107f4:	02040027          	0x2040027
   107f8:	00840413          	addi	s0,s0,8

000107fc <vxor_e16m1>:
   107fc:	00400293          	li	t0,4
   10800:	0082f057          	0x82f057
   10804:	00600293          	li	t0,6
   10808:	5e03b057          	0x5e03b057
   1080c:	5e03b0d7          	0x5e03b0d7
   10810:	2e100057          	0x2e100057
   10814:	2e02c057          	0x2e02c057
   10818:	2e07b057          	0x2e07b057
   1081c:	02045027          	0x2045027
   10820:	00840413          	addi	s0,s0,8

00010824 <vxor_e32m1>:
   10824:	00200293          	li	t0,2
   10828:	0102f057          	0x102f057
   1082c:	00600293          	li	t0,6
   10830:	5e03b057          	0x5e03b057
   10834:	5e03b0d7          	0x5e03b0d7
   10838:	2e100057          	0x2e100057
   1083c:	2e02c057          	0x2e02c057
   10840:	2e07b057          	0x2e07b057
   10844:	02046027          	0x2046027
   10848:	00840413          	addi	s0,s0,8

0001084c <vxor_e64m1>:
   1084c:	00100293          	li	t0,1
   10850:	0182f057          	0x182f057
   10854:	00600293          	li	t0,6
   10858:	5e03b057          	0x5e03b057
   1085c:	5e03b0d7          	0x5e03b0d7
   10860:	2e100057          	0x2e100057
   10864:	2e02c057          	0x2e02c057
   10868:	2e07b057          	0x2e07b057
   1086c:	02047027          	0x2047027
   10870:	00840413          	addi	s0,s0,8

00010874 <vmin_e8m1>:
   10874:	00200293          	li	t0,2
   10878:	0002f057          	0x2f057
   1087c:	5e02b057          	0x5e02b057
   10880:	5e03b0d7          	0x5e03b0d7
   10884:	16100057          	0x16100057
   10888:	02040027          	0x2040027
   1088c:	00440413          	addi	s0,s0,4

00010890 <vmin_e16m1>:
   10890:	00200293          	li	t0,2
   10894:	0082f057          	0x82f057
   10898:	5e02b057          	0x5e02b057
   1089c:	5e03b0d7          	0x5e03b0d7
   108a0:	16100057          	0x16100057
   108a4:	02045027          	0x2045027
   108a8:	00440413          	addi	s0,s0,4

000108ac <vmin_e32m1>:
   108ac:	00200293          	li	t0,2
   108b0:	0102f057          	0x102f057
   108b4:	5e02b057          	0x5e02b057
   108b8:	5e03b0d7          	0x5e03b0d7
   108bc:	16100057          	0x16100057
   108c0:	02046027          	0x2046027
   108c4:	00840413          	addi	s0,s0,8

000108c8 <vmin_e64m1>:
   108c8:	00100293          	li	t0,1
   108cc:	0182f057          	0x182f057
   108d0:	5e02b057          	0x5e02b057
   108d4:	5e03b0d7          	0x5e03b0d7
   108d8:	16100057          	0x16100057
   108dc:	02047027          	0x2047027
   108e0:	00840413          	addi	s0,s0,8

000108e4 <vmax_e8m1>:
   108e4:	00200293          	li	t0,2
   108e8:	0002f057          	0x2f057
   108ec:	5e02b057          	0x5e02b057
   108f0:	5e03b0d7          	0x5e03b0d7
   108f4:	1e100057          	0x1e100057
   108f8:	02040027          	0x2040027
   108fc:	00440413          	addi	s0,s0,4

00010900 <vmax_e16m1>:
   10900:	00200293          	li	t0,2
   10904:	0082f057          	0x82f057
   10908:	5e02b057          	0x5e02b057
   1090c:	5e03b0d7          	0x5e03b0d7
   10910:	1e100057          	0x1e100057
   10914:	02045027          	0x2045027
   10918:	00440413          	addi	s0,s0,4

0001091c <vmax_e32m1>:
   1091c:	00200293          	li	t0,2
   10920:	0102f057          	0x102f057
   10924:	5e02b057          	0x5e02b057
   10928:	5e03b0d7          	0x5e03b0d7
   1092c:	1e100057          	0x1e100057
   10930:	02046027          	0x2046027
   10934:	00840413          	addi	s0,s0,8

00010938 <vmax_e64m1>:
   10938:	00100293          	li	t0,1
   1093c:	0182f057          	0x182f057
   10940:	5e03b057          	0x5e03b057
   10944:	5e03b0d7          	0x5e03b0d7
   10948:	1e100057          	0x1e100057
   1094c:	02047027          	0x2047027
   10950:	00840413          	addi	s0,s0,8

00010954 <vmul_e16m1>:
   10954:	00300293          	li	t0,3
   10958:	0082f057          	0x82f057
   1095c:	fff00313          	li	t1,-1
   10960:	5e013057          	0x5e013057
   10964:	96036057          	0x96036057
   10968:	02045027          	0x2045027
   1096c:	00840413          	addi	s0,s0,8

00010970 <vmul_e32m2>:
   10970:	00000517          	auipc	a0,0x0
   10974:	44450513          	addi	a0,a0,1092 # 10db4 <__rodata_start>
   10978:	00400293          	li	t0,4
   1097c:	0112f057          	0x112f057
   10980:	5e003457          	0x5e003457
   10984:	00200293          	li	t0,2
   10988:	02056407          	0x2056407
   1098c:	9682e057          	0x9682e057
   10990:	02046027          	0x2046027
   10994:	01040413          	addi	s0,s0,16

00010998 <vmul_e64m2>:
   10998:	00000517          	auipc	a0,0x0
   1099c:	41c50513          	addi	a0,a0,1052 # 10db4 <__rodata_start>
   109a0:	00200293          	li	t0,2
   109a4:	0192f057          	0x192f057
   109a8:	5e003457          	0x5e003457
   109ac:	00200293          	li	t0,2
   109b0:	02057407          	0x2057407
   109b4:	9682e057          	0x9682e057
   109b8:	02047027          	0x2047027
   109bc:	01040413          	addi	s0,s0,16

000109c0 <vmul_e8m1>:
   109c0:	00600293          	li	t0,6
   109c4:	0002f057          	0x2f057
   109c8:	fff00313          	li	t1,-1
   109cc:	5e013057          	0x5e013057
   109d0:	9e036057          	0x9e036057
   109d4:	02040027          	0x2040027
   109d8:	00840413          	addi	s0,s0,8

000109dc <vmulh_e16m1>:
   109dc:	00300293          	li	t0,3
   109e0:	0082f057          	0x82f057
   109e4:	fff00313          	li	t1,-1
   109e8:	5e013057          	0x5e013057
   109ec:	9e036057          	0x9e036057
   109f0:	02045027          	0x2045027
   109f4:	00840413          	addi	s0,s0,8

000109f8 <vmulh_e32m2>:
   109f8:	00000517          	auipc	a0,0x0
   109fc:	3bc50513          	addi	a0,a0,956 # 10db4 <__rodata_start>
   10a00:	00400293          	li	t0,4
   10a04:	0112f057          	0x112f057
   10a08:	5e003457          	0x5e003457
   10a0c:	00200293          	li	t0,2
   10a10:	02056407          	0x2056407
   10a14:	9e82e057          	0x9e82e057
   10a18:	02046027          	0x2046027
   10a1c:	01040413          	addi	s0,s0,16

00010a20 <vmulh_e64m2>:
   10a20:	00000517          	auipc	a0,0x0
   10a24:	39450513          	addi	a0,a0,916 # 10db4 <__rodata_start>
   10a28:	00200293          	li	t0,2
   10a2c:	0192f057          	0x192f057
   10a30:	5e003457          	0x5e003457
   10a34:	00200293          	li	t0,2
   10a38:	02057407          	0x2057407
   10a3c:	9e82e057          	0x9e82e057
   10a40:	02047027          	0x2047027
   10a44:	01040413          	addi	s0,s0,16

00010a48 <vslidedown_e8m2>:
   10a48:	00000517          	auipc	a0,0x0
   10a4c:	36c50513          	addi	a0,a0,876 # 10db4 <__rodata_start>
   10a50:	01000293          	li	t0,16
   10a54:	0012f057          	0x12f057
   10a58:	02050207          	0x2050207
   10a5c:	00500293          	li	t0,5
   10a60:	3e42c257          	0x3e42c257
   10a64:	02040227          	0x2040227
   10a68:	01040413          	addi	s0,s0,16

00010a6c <vslidedown_e32m2>:
   10a6c:	00000517          	auipc	a0,0x0
   10a70:	34850513          	addi	a0,a0,840 # 10db4 <__rodata_start>
   10a74:	00400293          	li	t0,4
   10a78:	0112f057          	0x112f057
   10a7c:	02056207          	0x2056207
   10a80:	3e413257          	0x3e413257
   10a84:	02046227          	0x2046227
   10a88:	01040413          	addi	s0,s0,16

00010a8c <vslide1down_e32m2>:
   10a8c:	00000517          	auipc	a0,0x0
   10a90:	32850513          	addi	a0,a0,808 # 10db4 <__rodata_start>
   10a94:	00400293          	li	t0,4
   10a98:	00500313          	li	t1,5
   10a9c:	0112f057          	0x112f057
   10aa0:	02056207          	0x2056207
   10aa4:	3e436257          	0x3e436257
   10aa8:	02046227          	0x2046227
   10aac:	01040413          	addi	s0,s0,16

00010ab0 <vslideup_e8m2>:
   10ab0:	00000517          	auipc	a0,0x0
   10ab4:	30450513          	addi	a0,a0,772 # 10db4 <__rodata_start>
   10ab8:	01000293          	li	t0,16
   10abc:	0012f057          	0x12f057
   10ac0:	02050207          	0x2050207
   10ac4:	00500293          	li	t0,5
   10ac8:	3a42c257          	0x3a42c257
   10acc:	02040227          	0x2040227
   10ad0:	01040413          	addi	s0,s0,16

00010ad4 <vslideup_e32m2>:
   10ad4:	00000517          	auipc	a0,0x0
   10ad8:	2e050513          	addi	a0,a0,736 # 10db4 <__rodata_start>
   10adc:	00400293          	li	t0,4
   10ae0:	0112f057          	0x112f057
   10ae4:	02056207          	0x2056207
   10ae8:	3a413257          	0x3a413257
   10aec:	02046227          	0x2046227
   10af0:	01040413          	addi	s0,s0,16

00010af4 <vslide1up_e32m2>:
   10af4:	00000517          	auipc	a0,0x0
   10af8:	2c050513          	addi	a0,a0,704 # 10db4 <__rodata_start>
   10afc:	00400293          	li	t0,4
   10b00:	00500313          	li	t1,5
   10b04:	0112f057          	0x112f057
   10b08:	02056207          	0x2056207
   10b0c:	3a436257          	0x3a436257
   10b10:	02046227          	0x2046227
   10b14:	01040413          	addi	s0,s0,16

00010b18 <vsll_e16m1>:
   10b18:	00000517          	auipc	a0,0x0
   10b1c:	29c50513          	addi	a0,a0,668 # 10db4 <__rodata_start>
   10b20:	00400293          	li	t0,4
   10b24:	0082f057          	0x82f057
   10b28:	00600293          	li	t0,6
   10b2c:	5e03b057          	0x5e03b057
   10b30:	02055107          	0x2055107
   10b34:	96200057          	0x96200057
   10b38:	02045027          	0x2045027
   10b3c:	00840413          	addi	s0,s0,8

00010b40 <vsra_e16m1>:
   10b40:	00000517          	auipc	a0,0x0
   10b44:	27450513          	addi	a0,a0,628 # 10db4 <__rodata_start>
   10b48:	00400293          	li	t0,4
   10b4c:	0082f057          	0x82f057
   10b50:	00600293          	li	t0,6
   10b54:	5e03b057          	0x5e03b057
   10b58:	02055107          	0x2055107
   10b5c:	a6200057          	0xa6200057
   10b60:	02045027          	0x2045027
   10b64:	00840413          	addi	s0,s0,8

00010b68 <vsrl_e16m1>:
   10b68:	00000517          	auipc	a0,0x0
   10b6c:	24c50513          	addi	a0,a0,588 # 10db4 <__rodata_start>
   10b70:	00400293          	li	t0,4
   10b74:	0082f057          	0x82f057
   10b78:	00600293          	li	t0,6
   10b7c:	5e03b057          	0x5e03b057
   10b80:	02055107          	0x2055107
   10b84:	a2200057          	0xa2200057
   10b88:	02045027          	0x2045027
   10b8c:	00840413          	addi	s0,s0,8

00010b90 <vse8_e8m1>:
   10b90:	00700293          	li	t0,7
   10b94:	0002f057          	0x2f057
   10b98:	fff00313          	li	t1,-1
   10b9c:	5e02b057          	0x5e02b057
   10ba0:	02034057          	0x2034057
   10ba4:	02040027          	0x2040027
   10ba8:	00840413          	addi	s0,s0,8

00010bac <vse16_e16m1>:
   10bac:	00300293          	li	t0,3
   10bb0:	0082f057          	0x82f057
   10bb4:	fff00313          	li	t1,-1
   10bb8:	5e02b057          	0x5e02b057
   10bbc:	02034057          	0x2034057
   10bc0:	02045027          	0x2045027
   10bc4:	00840413          	addi	s0,s0,8

00010bc8 <vse32_e32m1>:
   10bc8:	00200293          	li	t0,2
   10bcc:	0102f057          	0x102f057
   10bd0:	fff00313          	li	t1,-1
   10bd4:	5e02b057          	0x5e02b057
   10bd8:	02034057          	0x2034057
   10bdc:	02046027          	0x2046027
   10be0:	00840413          	addi	s0,s0,8

00010be4 <vse64_e64m1>:
   10be4:	00100293          	li	t0,1
   10be8:	0182f057          	0x182f057
   10bec:	f9d00313          	li	t1,-99
   10bf0:	5e02b057          	0x5e02b057
   10bf4:	02034057          	0x2034057
   10bf8:	02047027          	0x2047027
   10bfc:	00840413          	addi	s0,s0,8

00010c00 <vsse8_e8m1>:
   10c00:	00700293          	li	t0,7
   10c04:	0002f057          	0x2f057
   10c08:	fff00313          	li	t1,-1
   10c0c:	00400393          	li	t2,4
   10c10:	5e02b057          	0x5e02b057
   10c14:	02034057          	0x2034057
   10c18:	0a740027          	0xa740027
   10c1c:	01c40413          	addi	s0,s0,28

00010c20 <vsse16_e16m1>:
   10c20:	00300293          	li	t0,3
   10c24:	0082f057          	0x82f057
   10c28:	fff00313          	li	t1,-1
   10c2c:	00400393          	li	t2,4
   10c30:	5e02b057          	0x5e02b057
   10c34:	02034057          	0x2034057
   10c38:	0a745027          	0xa745027
   10c3c:	01440413          	addi	s0,s0,20

00010c40 <vsse32_e32m1>:
   10c40:	00200293          	li	t0,2
   10c44:	0102f057          	0x102f057
   10c48:	fff00313          	li	t1,-1
   10c4c:	00400393          	li	t2,4
   10c50:	5e02b057          	0x5e02b057
   10c54:	02034057          	0x2034057
   10c58:	0a746027          	0xa746027
   10c5c:	01440413          	addi	s0,s0,20

00010c60 <vsse64_e64m1>:
   10c60:	00100293          	li	t0,1
   10c64:	0182f057          	0x182f057
   10c68:	f9d00313          	li	t1,-99
   10c6c:	00400393          	li	t2,4
   10c70:	5e02b057          	0x5e02b057
   10c74:	02034057          	0x2034057
   10c78:	0a747027          	0xa747027
   10c7c:	00840413          	addi	s0,s0,8

00010c80 <vsse64_e64m2>:
   10c80:	00200293          	li	t0,2
   10c84:	0192f057          	0x192f057
   10c88:	f9d00313          	li	t1,-99
   10c8c:	00400393          	li	t2,4
   10c90:	5e02b057          	0x5e02b057
   10c94:	02034057          	0x2034057
   10c98:	0a747027          	0xa747027
   10c9c:	02840413          	addi	s0,s0,40

00010ca0 <vsse64_e64m4>:
   10ca0:	00300293          	li	t0,3
   10ca4:	01a2f057          	0x1a2f057
   10ca8:	f9d00313          	li	t1,-99
   10cac:	00400393          	li	t2,4
   10cb0:	5e02b057          	0x5e02b057
   10cb4:	02034057          	0x2034057
   10cb8:	0a747027          	0xa747027
   10cbc:	04840413          	addi	s0,s0,72

00010cc0 <vsse64_e64m8>:
   10cc0:	00500293          	li	t0,5
   10cc4:	01b2f057          	0x1b2f057
   10cc8:	f9d00313          	li	t1,-99
   10ccc:	00400393          	li	t2,4
   10cd0:	5e02b057          	0x5e02b057
   10cd4:	02034057          	0x2034057
   10cd8:	0a747027          	0xa747027
   10cdc:	0a040413          	addi	s0,s0,160

00010ce0 <vle8_e8m1>:
   10ce0:	00000517          	auipc	a0,0x0
   10ce4:	0d450513          	addi	a0,a0,212 # 10db4 <__rodata_start>
   10ce8:	00300293          	li	t0,3
   10cec:	0002f057          	0x2f057
   10cf0:	5e003457          	0x5e003457
   10cf4:	02050407          	0x2050407
   10cf8:	02040427          	0x2040427
   10cfc:	00440413          	addi	s0,s0,4

00010d00 <vle16_e16m1>:
   10d00:	00000517          	auipc	a0,0x0
   10d04:	0b450513          	addi	a0,a0,180 # 10db4 <__rodata_start>
   10d08:	00300293          	li	t0,3
   10d0c:	0082f057          	0x82f057
   10d10:	5e003457          	0x5e003457
   10d14:	02055407          	0x2055407
   10d18:	02045427          	0x2045427
   10d1c:	00840413          	addi	s0,s0,8

00010d20 <vle32_e32m1>:
   10d20:	00000517          	auipc	a0,0x0
   10d24:	09450513          	addi	a0,a0,148 # 10db4 <__rodata_start>
   10d28:	00200293          	li	t0,2
   10d2c:	0102f057          	0x102f057
   10d30:	5e003457          	0x5e003457
   10d34:	02056407          	0x2056407
   10d38:	02046427          	0x2046427
   10d3c:	00840413          	addi	s0,s0,8

00010d40 <vle64_e64m1>:
   10d40:	00000517          	auipc	a0,0x0
   10d44:	07450513          	addi	a0,a0,116 # 10db4 <__rodata_start>
   10d48:	00100293          	li	t0,1
   10d4c:	0182f057          	0x182f057
   10d50:	5e003457          	0x5e003457
   10d54:	02057407          	0x2057407
   10d58:	02047427          	0x2047427
   10d5c:	00440413          	addi	s0,s0,4

00010d60 <vle8_e8m2>:
   10d60:	00000517          	auipc	a0,0x0
   10d64:	05450513          	addi	a0,a0,84 # 10db4 <__rodata_start>
   10d68:	00500293          	li	t0,5
   10d6c:	00400313          	li	t1,4
   10d70:	0002f057          	0x2f057
   10d74:	5e003457          	0x5e003457
   10d78:	0a650407          	0xa650407
   10d7c:	02040427          	0x2040427
   10d80:	00840413          	addi	s0,s0,8

00010d84 <vle832_e32m2>:
   10d84:	00000517          	auipc	a0,0x0
   10d88:	03050513          	addi	a0,a0,48 # 10db4 <__rodata_start>
   10d8c:	00300293          	li	t0,3
   10d90:	00200313          	li	t1,2
   10d94:	0112f057          	0x112f057
   10d98:	5e003457          	0x5e003457
   10d9c:	0a656407          	0xa656407
   10da0:	02046427          	0x2046427
   10da4:	00c40413          	addi	s0,s0,12

00010da8 <main_exit>:
   10da8:	00012403          	lw	s0,0(sp)
   10dac:	00410113          	addi	sp,sp,4
   10db0:	00008067          	ret
