
main:     file format elf32-littleriscv
main
architecture: riscv:rv32, flags 0x00000112:
EXEC_P, HAS_SYMS, D_PAGED
start address 0x00000000

Program Header:
0x70000003 off    0x00006067 vaddr 0x00000000 paddr 0x00000000 align 2**0
         filesz 0x00000056 memsz 0x00000000 flags r--
    LOAD off    0x00001000 vaddr 0x00000000 paddr 0x00000000 align 2**12
         filesz 0x00000284 memsz 0x00000284 flags r-x
    LOAD off    0x00000000 vaddr 0x00020000 paddr 0x00020000 align 2**12
         filesz 0x00000000 memsz 0x00000004 flags rw-
    LOAD off    0x00002000 vaddr 0x00010000 paddr 0x20000000 align 2**12
         filesz 0x00000c14 memsz 0x00000c14 flags r-x
    LOAD off    0x00000000 vaddr 0x20100000 paddr 0x20100000 align 2**12
         filesz 0x00000000 memsz 0x00001000 flags rw-
    LOAD off    0x00003004 vaddr 0x00020004 paddr 0x20101000 align 2**12
         filesz 0x00003054 memsz 0x00004054 flags rw-
   STACK off    0x00000000 vaddr 0x00000000 paddr 0x00000000 align 2**4
         filesz 0x00000000 memsz 0x00000000 flags rw-

Sections:
Idx Name          Size      VMA       LMA       File off  Algn
  0 .text0        00000284  00000000  00000000  00001000  2**2
                  CONTENTS, ALLOC, LOAD, READONLY, CODE
  1 .text1        00000c14  00010000  20000000  00002000  2**2
                  CONTENTS, ALLOC, LOAD, READONLY, CODE
  2 _test         00001000  20100000  20100000  00003000  2**0
                  ALLOC
  3 .sbss         00000004  00020000  00020000  00002000  2**2
                  ALLOC
  4 .sdata        00000004  00020004  20101000  00003004  2**2
                  CONTENTS, ALLOC, LOAD, DATA
  5 .data         00003050  00020008  20101004  00003008  2**2
                  CONTENTS, ALLOC, LOAD, DATA
  6 .bss          00000000  00023058  20104054  00006058  2**0
                  ALLOC
  7 .stack        00001000  00023058  20104054  00006058  2**0
                  ALLOC
  8 .comment      0000000f  00000000  00000000  00006058  2**0
                  CONTENTS, READONLY
  9 .riscv.attributes 00000056  00000000  00000000  00006067  2**0
                  CONTENTS, READONLY
 10 .debug_line   000001cd  00000000  00000000  000060bd  2**0
                  CONTENTS, READONLY, DEBUGGING
 11 .debug_line_str 0000009a  00000000  00000000  0000628a  2**0
                  CONTENTS, READONLY, DEBUGGING
 12 .debug_info   00000090  00000000  00000000  00006324  2**0
                  CONTENTS, READONLY, DEBUGGING
 13 .debug_abbrev 00000050  00000000  00000000  000063b4  2**0
                  CONTENTS, READONLY, DEBUGGING
 14 .debug_aranges 00000040  00000000  00000000  00006408  2**3
                  CONTENTS, READONLY, DEBUGGING
 15 .debug_str    00000109  00000000  00000000  00006448  2**0
                  CONTENTS, READONLY, DEBUGGING
SYMBOL TABLE:
00000000 l    d  .text0	00000000 .text0
00010000 l    d  .text1	00000000 .text1
20100000 l    d  _test	00000000 _test
00020000 l    d  .sbss	00000000 .sbss
00020004 l    d  .sdata	00000000 .sdata
00020008 l    d  .data	00000000 .data
00023058 l    d  .bss	00000000 .bss
00023058 l    d  .stack	00000000 .stack
00000000 l    d  .comment	00000000 .comment
00000000 l    d  .riscv.attributes	00000000 .riscv.attributes
00000000 l    d  .debug_line	00000000 .debug_line
00000000 l    d  .debug_line_str	00000000 .debug_line_str
00000000 l    d  .debug_info	00000000 .debug_info
00000000 l    d  .debug_abbrev	00000000 .debug_abbrev
00000000 l    d  .debug_aranges	00000000 .debug_aranges
00000000 l    d  .debug_str	00000000 .debug_str
00000000 l    df *ABS*	00000000 setup.o
00000000 l       .text0	00000000 $xrv32i2p1_f2p2_zicsr2p0_zve32x1p0_zve64x1p0_zvl32b1p0_zvl64b1p0
00000084 l       .text0	00000000 init_bss
00000108 l       .text0	00000000 fill_block
0000009c l       .text0	00000000 init_sbss
000000b4 l       .text0	00000000 write_stack_pattern
000000cc l       .text0	00000000 init_stack
000000d4 l       .text0	00000000 write_test_pattern
000000ec l       .text0	00000000 SystemInit
000000f4 l       .text0	00000000 SystemExit
00000104 l       .text0	00000000 dead_loop
00000118 l       .text0	00000000 fb_end
00000000 l    df *ABS*	00000000 boot.c
0000011c l       .text0	00000000 $xrv32i2p1_f2p2_zicsr2p0_zve32x1p0_zve64x1p0_zvl32b1p0_zvl64b1p0
00000000 l    df *ABS*	00000000 isr.o
00010000 l       .text1	00000000 $xrv32i2p1_f2p2_zicsr2p0_zve32x1p0_zve64x1p0_zvl32b1p0_zvl64b1p0
00000000 l    df *ABS*	00000000 main.c
00010108 l       .text1	00000000 $xrv32i2p1_f2p2_zicsr2p0_zve32x1p0_zve64x1p0_zvl32b1p0_zvl64b1p0
00000000 l    df *ABS*	00000000 muldi3.o
00010b3c l       .text1	00000000 $xrv32i2p1
00000000 l    df *ABS*	00000000 div.o
00010b60 l       .text1	00000000 $xrv32i2p1
00020000 g     O .sbss	00000004 copy_addr
20100000 g       _test	00000000 _test_start
0002000c g       .data	00000000 _H0
20101004 g       *ABS*	00000000 __data_paddr_start
00020020 g       .data	00000000 _binary_image_bmp_start
00020000 g       .sbss	00000000 __sbss_start
00020018 g       .data	00000000 _dstWidth
00020804 g       .sdata	00000000 _gp
0002001c g       .data	00000000 _dstHeight
20101000 g       _test	00000000 _test_end
00010000 g       .text1	00000000 _imem_start
00001000 g       *ABS*	00000000 _TEST_SIZE
20101000 g       *ABS*	00000000 __sdata_paddr_start
00020004 g       .sdata	00000000 __sdata_start
00020008 g       .data	00000000 _W0
00010c14 g       .text1	00000000 __rodata_end
00010b68 g     F .text1	00000048 .hidden __hidden___udivsi3
00010b68 g     F .text1	00000048 .hidden __udivsi3
0000011c g     F .text0	00000168 boot
00023058 g       .bss	00000000 __bss_end
00010180 g     F .text1	00000054 trap_handler
00020004 g       .sbss	00000000 __sbss_end
00010bb0 g     F .text1	00000010 .hidden __umodsi3
00020010 g       .data	00000000 _srcWidth
00000000 g       .text0	00000000 _start
00010c14 g       .text1	00000000 __rodata_start
00010108 g     F .text1	0000003c timer_interrupt_handler
00010144 g     F .text1	0000003c external_interrupt_handler
000101d4 g     F .text1	000001c0 cubicInterpolateInt
00023058 g       .data	00000000 __data_end
00010b3c g     F .text1	00000024 .hidden __mulsi3
20000000 g       .text1	00000000 _dram_i_start
00010394 g     F .text1	00000228 bicubicInterpolateInt
00023058 g       .bss	00000000 __bss_start
00001000 g       *ABS*	00000000 _STACK_SIZE
0002fffc g       .stack	00000000 _sim_end
00010a04 g     F .text1	00000138 main
00010000 g       .text1	00000000 trap_entry
00023058 g       .stack	00000000 _stack_end
000105bc g     F .text1	00000318 bicubicResizeInt
00010b60 g     F .text1	00000084 .hidden __divsi3
00020008 g       .sdata	00000000 __sdata_end
000108d4 g     F .text1	00000130 bicubicResizeRGB
20000c14 g       .text1	00000000 _dram_i_end
00024058 g       .stack	00000000 __stack
00030000 g       .stack	00000000 _end
00010be4 g     F .text1	00000030 .hidden __modsi3
00020014 g       .data	00000000 _srcHeight
00024058 g       .stack	00000000 _stack
00020004 g     O .sdata	00000004 WDT_addr
00020008 g       .data	00000000 __data_start


Contents of section .text0:
 0000 93000000 13010000 93010000 13020000  ................
 0010 93020000 13030000 93030000 13040000  ................
 0020 93040000 13050000 93050000 13060000  ................
 0030 93060000 13070000 93070000 13080000  ................
 0040 93080000 13090000 93090000 130a0000  ................
 0050 930a0000 130b0000 930b0000 130c0000  ................
 0060 930c0000 130d0000 930d0000 130e0000  ................
 0070 930e0000 130f0000 930f0000 97010200  ................
 0080 93818178 17350200 130545fd 97350200  ...x.5....E..5..
 0090 938585fc 13060000 ef000007 17050200  ................
 00a0 130545f6 97050200 9385c5f5 13060000  ..E.............
 00b0 ef008005 17350200 130545fa 97450200  .....5....E..E..
 00c0 938585f9 13060000 ef000004 17410200  .............A..
 00d0 1301c1f8 17051020 1305c5f2 97151020  ....... ....... 
 00e0 938505f2 13060000 ef000002 ef000003  ................
 00f0 ef005111 97020300 938282f0 1303f0ff  ..Q.............
 0100 23a06200 6f000000 63e8a500 2320c500  #.b.o...c...# ..
 0110 13054500 6ff05fff 67800000 130101fe  ..E.o._.g.......
 0120 232e1100 232c8100 13040102 b7070210  #...#,..........
 0130 2326f4fe 73600430 b71f0000 938f0f80  #&..s`.0........
 0140 73a04f30 8327c4fe 93870720 37070020  s.O0.'..... 7.. 
 0150 13070700 23a0e700 8327c4fe 93870730  ....#....'.....0
 0160 37070100 13070700 23a0e700 b7170020  7.......#...... 
 0170 138747c1 b7070020 93870700 b307f740  ..G.... .......@
 0180 13d72700 8327c4fe 93870740 13071700  ..'..'.....@....
 0190 23a0e700 8327c4fe 93870710 13071000  #....'..........
 01a0 23a0e700 73005010 8327c4fe 93870720  #...s.P..'..... 
 01b0 37171020 13070700 23a0e700 8327c4fe  7.. ....#....'..
 01c0 93870730 37070200 13074700 23a0e700  ...07.....G.#...
 01d0 b7070200 13878700 b7070200 93874700  ..............G.
 01e0 b307f740 13d72700 8327c4fe 93870740  ...@..'..'.....@
 01f0 13071700 23a0e700 8327c4fe 93870710  ....#....'......
 0200 13071000 23a0e700 73005010 8327c4fe  ....#...s.P..'..
 0210 93870720 37171020 13074700 23a0e700  ... 7.. ..G.#...
 0220 8327c4fe 93870730 37070200 13078700  .'.....07.......
 0230 23a0e700 b7370200 13878705 b7070200  #....7..........
 0240 93878700 b307f740 13d72700 8327c4fe  .......@..'..'..
 0250 93870740 13071700 23a0e700 8327c4fe  ...@....#....'..
 0260 93870710 13071000 23a0e700 73005010  ........#...s.P.
 0270 13000000 8320c101 03248101 13010102  ..... ...$......
 0280 67800000                             g...            
Contents of section .text1:
 10000 130141f8 23201100 23222100 23243100  ..A.# ..#"!.#$1.
 10010 23264100 23285100 232a6100 232c7100  #&A.#(Q.#*a.#,q.
 10020 232e8100 23209102 2322a102 2324b102  #...# ..#"..#$..
 10030 2326c102 2328d102 232ae102 232cf102  #&..#(..#*..#,..
 10040 232e0103 23201105 23222105 23243105  #...# ..#"!.#$1.
 10050 23264105 23285105 232a6105 232c7105  #&A.#(Q.#*a.#,q.
 10060 232e8105 23209107 2322a107 2324b107  #...# ..#"..#$..
 10070 2326c107 2328d107 232ae107 232cf107  #&..#(..#*..#,..
 10080 ef000010 83200100 03214100 83218100  ..... ...!A..!..
 10090 0322c100 83220101 03234101 83238101  ."..."...#A..#..
 100a0 0324c101 83240102 03254102 83258102  .$...$...%A..%..
 100b0 0326c102 83260103 03274103 83278103  .&...&...'A..'..
 100c0 0328c103 83280104 03294104 83298104  .(...(...)A..)..
 100d0 032ac104 832a0105 032b4105 832b8105  .*...*...+A..+..
 100e0 032cc105 832c0106 032d4106 832d8106  .,...,...-A..-..
 100f0 032ec106 832e0107 032f4107 832f8107  ........./A../..
 10100 1301c107 73002030 130101ff 23261100  ....s. 0....#&..
 10110 23248100 13040101 73600030 b7070200  #$......s`.0....
 10120 83a74700 93870710 23a00700 6ff05eed  ..G.....#...o.^.
 10130 13000000 8320c100 03248100 13010101  ..... ...$......
 10140 67800000 130101fe 232e1100 232c8100  g.......#...#,..
 10150 13040102 b7070210 2326f4fe 73600030  ........#&..s`.0
 10160 8327c4fe 93870710 23a00700 13000000  .'......#.......
 10170 8320c101 03248101 13010102 67800000  . ...$......g...
 10180 130101fe 232e1100 232c8100 13040102  ....#...#,......
 10190 f3274034 2326f4fe 8327c4fe 93f70708  .'@4#&...'......
 101a0 63840700 eff05ff6 0327c4fe b7170000  c....._..'......
 101b0 93870780 b377f700 63840700 eff09ff8  .....w..c.......
 101c0 13000000 8320c101 03248101 13010102  ..... ...$......
 101d0 67800000 130101fc 232e1102 232c8102  g.......#...#,..
 101e0 232a9102 13040104 2326a4fc 2324b4fc  #*......#&..#$..
 101f0 8327c4fc 93874700 03a70700 93070700  .'....G.........
 10200 93971700 3387e700 8327c4fc 83a70700  ....3....'......
 10210 3307f740 8327c4fc 93878700 83a70700  3..@.'..........
 10220 93860700 93972700 b387f640 3307f700  ......'....@3...
 10230 8327c4fc 9387c700 83a70700 b307f700  .'..............
 10240 93d71740 2326f4fe 8327c4fc 83a70700  ...@#&...'......
 10250 93961700 8327c4fc 93874700 03a70700  .....'....G.....
 10260 93070700 93972700 b387e700 b307f040  ......'........@
 10270 3387f600 8327c4fc 93878700 83a70700  3....'..........
 10280 93972700 3307f700 8327c4fc 9387c700  ..'.3....'......
 10290 83a70700 b307f740 93d71740 2324f4fe  .......@...@#$..
 102a0 8327c4fc 93878700 03a70700 8327c4fc  .'...........'..
 102b0 83a70700 b307f740 93d71740 2322f4fe  .......@...@#"..
 102c0 8327c4fc 83a74700 2320f4fe 832584fc  .'....G.# ...%..
 102d0 032584fc ef009006 93070500 232ef4fc  .%..........#...
 102e0 832584fc 0325c4fd ef005005 93070500  .%...%....P.....
 102f0 13d7f741 1377f70f b307f700 93d78740  ...A.w.........@
 10300 232cf4fc 832584fd 0325c4fe ef001003  #,...%...%......
 10310 93070500 93840700 8325c4fd 032584fe  .........%...%..
 10320 ef00d001 93070500 b384f400 832584fc  .............%..
 10330 032544fe ef009000 93070500 93978700  .%D.............
 10340 b386f400 032704fe 93070700 9397e700  .....'..........
 10350 b387e740 93972700 b387f600 93d70741  ...@..'........A
 10360 232af4fc 832744fd 1307f00f 6354f700  #*...'D.....cT..
 10370 9307f00f 63d40700 93070000 13850700  ....c...........
 10380 8320c103 03248103 83244103 13010104  . ...$...$A.....
 10390 67800000 130101f7 23261108 23248108  g.......#&..#$..
 103a0 13040109 232ea4f6 232cb4f6 232ac4f6  ....#...#,..#*..
 103b0 232604fe 6f000007 232404fe 6f000005  #&..o...#$..o...
 103c0 832784fe 93974700 0327c4f7 3307f700  .'....G..'..3...
 103d0 8327c4fe 93972700 b307f700 03a70700  .'....'.........
 103e0 8327c4fe 93962700 832784fe b386f600  .'....'..'......
 103f0 930704f8 93962600 b387f600 23a0e700  ......&.....#...
 10400 832784fe 93871700 2324f4fe 032784fe  .'......#$...'..
 10410 93073000 e3d6e7fa 8327c4fe 93871700  ..0......'......
 10420 2326f4fe 0327c4fe 93073000 e3d6e7f8  #&...'....0.....
 10430 93074000 57f0170d 930704f8 07e00702  ..@.W...........
 10440 930704f8 93870701 07e10702 930704f8  ................
 10450 93870702 07e20702 930704f8 93870703  ................
 10460 07e30702 5734005e 5735005e 5736005e  ....W4.^W5.^W6.^
 10470 5738005e 93073000 57e42796 93072000  W8.^..0.W.'... .
 10480 57e50796 5704800a 9307b0ff 57e527b6  W...W.......W.'.
 10490 9307d0ff 57e447b6 93074000 57e547b6  ....W.G...@.W.G.
 104a0 57048302 57b480a6 5705a30a 57b5a0a6  W...W...W...W...
 104b0 5706400a 57b6c0a6 b7070100 9387c7ff  W.@.W...........
 104c0 57e82796 832784f7 93978700 2320f4fe  W.'..'......# ..
 104d0 832704fe 57e8c7b6 832584f7 032584f7  .'..W....%...%..
 104e0 ef00c065 93070500 232ef4fc 8327c4fd  ...e....#....'..
 104f0 57e8a7b6 832584f7 0325c4fd ef000064  W....%...%.....d
 10500 93070500 13d7f741 1377f70f b307f700  .......A.w......
 10510 93d78740 232cf4fc 832784fd 57e887b6  ...@#,...'..W...
 10520 930704fc 27e80702 232204fe 6f008005  ....'...#"..o...
 10530 032744fe 930704fc 13172700 b307f700  .'D.......'.....
 10540 83a70700 93d70741 2328f4fc 832704fd  .......A#(...'..
 10550 1307f00f 6354f700 9307f00f 63d40700  ....cT......c...
 10560 93070000 832644fe 130704fc 93962600  .....&D.......&.
 10570 3387e600 2320f700 832744fe 93871700  3...# ...'D.....
 10580 2322f4fe 032744fe 93073000 e3d2e7fa  #"...'D...0.....
 10590 930704fc 832544f7 13850700 eff09fc3  .....%D.........
 105a0 232aa4fc 832744fd 13850700 8320c108  #*...'D...... ..
 105b0 03248108 13010109 67800000 130101f5  .$......g.......
 105c0 2326110a 2324810a 2322910a 1304010b  #&..#$..#"......
 105d0 2326a4f6 2324b4f6 2322c4f6 2320d4f6  #&..#$..#"..# ..
 105e0 232ee4f4 232cf4f4 232a04f5 232814f5  #...#,..#*..#(..
 105f0 832784f6 9387f7ff 13978700 8327c4f5  .'...........'..
 10600 9387f7ff 93850700 13050700 ef004055  ..............@U
 10610 93070500 232ef4fc 832744f6 9387f7ff  ....#....'D.....
 10620 13978700 832784f5 9387f7ff 93850700  .....'..........
 10630 13050700 ef00c052 93070500 232cf4fc  .......R....#,..
 10640 232604fe 6f008026 232404fe 6f008024  #&..o..&#$..o..$
 10650 8325c4fd 032584fe ef00404e 93070500  .%...%....@N....
 10660 232af4fc 832584fd 0325c4fe ef00004d  #*...%...%.....M
 10670 93070500 2328f4fc 832744fd 93d78740  ....#(...'D....@
 10680 2326f4fc 832704fd 93d78740 2324f4fc  #&...'.....@#$..
 10690 9307f0ff 2322f4fe 6f008014 9307f0ff  ....#"..o.......
 106a0 2320f4fe 6f004012 0327c4fc 832704fe  # ..o.@..'...'..
 106b0 3307f700 832744f5 b307f700 63ca0702  3....'D.....c...
 106c0 0327c4fc 832704fe 3307f700 832744f5  .'...'..3....'D.
 106d0 b307f700 93860700 83274400 1387f7ff  .........'D.....
 106e0 93870600 6378f700 93070700 6f008000  ....cx......o...
 106f0 93070000 232cf4fa 032784fc 832744fe  ....#,...'...'D.
 10700 3307f700 832704f5 b307f700 63ca0702  3....'......c...
 10710 032784fc 832744fe 3307f700 832704f5  .'...'D.3....'..
 10720 b307f700 93860700 83278400 1387f7ff  .........'......
 10730 93870600 6378f700 93070700 6f008000  ....cx......o...
 10740 93070000 232af4fa 832744fb 83254400  ....#*...'D..%D.
 10750 13850700 ef00803e 93070500 13870700  .......>........
 10760 832784fb 3307f700 93070700 93971700  .'..3...........
 10770 b387e700 2328f4fa 032704fb 83270400  ....#(...'...'..
 10780 b307f700 13870700 8327c4f6 b387e700  .........'......
 10790 83c60700 832744fe 13871700 832704fe  .....'D......'..
 107a0 93871700 13172700 3307f700 930704f7  ......'.3.......
 107b0 13172700 b307f700 23a0d700 832704fe  ..'.....#....'..
 107c0 93871700 2320f4fe 032704fe 93072000  ....# ...'.... .
 107d0 e3dce7ec 832744fe 93871700 2322f4fe  .....'D.....#"..
 107e0 032744fe 93072000 e3dae7ea 832744fd  .'D... ......'D.
 107f0 93f7f70f 2322f4fc 832704fd 93f7f70f  ....#"...'......
 10800 2320f4fc 930704f7 032604fc 832544fc  # .......&...%D.
 10810 13850700 eff01fb8 232ea4fa 8327c4fb  ........#....'..
 10820 63c20702 0327c4fb 9307f00f 63c8e700  c....'......c...
 10830 8327c4fb 93f4f70f 6f000001 9304f00f  .'......o.......
 10840 6f008000 93040000 8325c4f5 0325c4fe  o........%...%..
 10850 ef00c02e 93070500 13870700 832784fe  .............'..
 10860 3307f700 93070700 93971700 3387e700  3...........3...
 10870 83270400 b307f700 13870700 832704f6  .'...........'..
 10880 b387e700 23809700 832784fe 93871700  ....#....'......
 10890 2324f4fe 032784fe 8327c4f5 e34af7da  #$...'...'...J..
 108a0 8327c4fe 93871700 2326f4fe 0327c4fe  .'......#&...'..
 108b0 832784f5 e34af7d8 13000000 13000000  .'...J..........
 108c0 8320c10a 0324810a 8324410a 1301010b  . ...$...$A.....
 108d0 67800000 130101fb 23261104 23248104  g.......#&..#$..
 108e0 13040105 232ea4fc 232cb4fc 232ac4fc  ....#...#,..#*..
 108f0 2328d4fc 2326e4fc 2324f4fc 232204fd  #(..#&..#$..#"..
 10900 232014fd 832704fc 83250400 13850700  # ...'...%......
 10910 ef00c022 93070500 13870700 832744fc  ...".........'D.
 10920 3307f700 93070700 93971700 b387e700  3...............
 10930 0327c4fd b307f700 2326f4fe 83274400  .'......#&...'D.
 10940 2324f100 83270400 2322f100 23200100  #$...'..#"..# ..
 10950 832804fc 032844fc 832784fc 0327c4fc  .(...(D..'...'..
 10960 832604fd 032644fd 832584fd 0325c4fe  .&...&D..%...%..
 10970 eff0dfc4 83274400 2324f100 83270400  .....'D.#$...'..
 10980 2322f100 93071000 2320f100 832804fc  #"......# ...(..
 10990 032844fc 832784fc 0327c4fc 832604fd  .(D..'...'...&..
 109a0 032644fd 832584fd 0325c4fe eff01fc1  .&D..%...%......
 109b0 83274400 2324f100 83270400 2322f100  .'D.#$...'..#"..
 109c0 93072000 2320f100 832804fc 032844fc  .. .# ...(...(D.
 109d0 832784fc 0327c4fc 832604fd 032644fd  .'...'...&...&D.
 109e0 832584fd 0325c4fe eff05fbd 13000000  .%...%...._.....
 109f0 13000000 8320c104 03248104 13010105  ..... ...$......
 10a00 67800000 130101fd 23261102 23248102  g.......#&..#$..
 10a10 13040103 b7070200 93876705 2326f4fe  ..........g.#&..
 10a20 b7071020 93870700 2324f4fe b7070200  ... ....#$......
 10a30 93870702 83c72701 13870700 b7070200  ......'.........
 10a40 93870702 83c73701 93978700 3367f700  ......7.....3g..
 10a50 b7070200 93870702 83c74701 93970701  ..........G.....
 10a60 3367f700 b7070200 93870702 83c75701  3g............W.
 10a70 93978701 b367f700 2322f4fe b7070200  .....g..#"......
 10a80 93870702 83c76701 13870700 b7070200  ......g.........
 10a90 93870702 83c77701 93978700 3367f700  ......w.....3g..
 10aa0 b7070200 93870702 83c78701 93970701  ................
 10ab0 3367f700 b7070200 93870702 83c79701  3g..............
 10ac0 93978701 b367f700 2320f4fe b7070200  .....g..# ......
 10ad0 83a50701 b7070200 03a64701 b7070200  ..........G.....
 10ae0 03a78701 b7070200 83a6c701 b7070200  ................
 10af0 03a58700 b7070200 03a8c700 832704fe  .............'..
 10b00 2322f100 832744fe 2320f100 93080800  #"...'D.# ......
 10b10 13080500 93870600 832684fe 0325c4fe  .........&...%..
 10b20 eff05fdb 93070000 13850700 8320c102  .._.......... ..
 10b30 03248102 13010103 67800000 13060500  .$......g.......
 10b40 13050000 93f61500 63840600 3305c500  ........c...3...
 10b50 93d51500 13161600 e39605fe 67800000  ............g...
 10b60 63400506 63c60506 13860500 93050500  c@..c...........
 10b70 1305f0ff 630c0602 93061000 637ab600  ....c.......cz..
 10b80 6358c000 13161600 93961600 e36ab6fe  cX...........j..
 10b90 13050000 63e6c500 b385c540 3365d500  ....c......@3e..
 10ba0 93d61600 13561600 e39606fe 67800000  .....V......g...
 10bb0 93820000 eff05ffb 13850500 67800200  ......_.....g...
 10bc0 3305a040 6348b000 b305b040 6ff0dff9  3..@cH.....@o...
 10bd0 b305b040 93820000 eff01ff9 3305a040  ...@........3..@
 10be0 67800200 93820000 63ca0500 634c0500  g.......c...cL..
 10bf0 eff09ff7 13850500 67800200 b305b040  ........g......@
 10c00 e35805fe 3305a040 eff01ff6 3305b040  .X..3..@....3..@
 10c10 67800200                             g...            
Contents of section .sdata:
 20004 00000110                             ....            
Contents of section .data:
 20008 08000000 00000000 0a000000 0a000000  ................
 20018 14000000 14000000 424d3630 00000000  ........BM60....
 20028 00003600 00002800 00004000 00004000  ..6...(...@...@.
 20038 00000100 18000000 00000030 0000c40e  ...........0....
 20048 0000c40e 00000000 00000000 0000ffff  ................
 20058 ffffffff ffffffff ffffffff ffffffff  ................
 20068 ffffffff ffffffff ffffffff ffffffff  ................
 20078 ffffffff ffffffff ffffffff ffffffff  ................
 20088 ffffffff ffffffff ffffffff ffffffff  ................
 20098 ffffffff ffffffff ffffffff ffffffff  ................
 200a8 ffffffff ffffffff ffffffff ffffffff  ................
 200b8 ffffffff ffffffff ffffffff ffffffff  ................
 200c8 d3d4d597 94939a92 8e969798 e6e9eabd  ................
 200d8 bdbde5e5 e5ffffff ffffffff ffffffff  ................
 200e8 ffffffff ffffffff ffffffff ffffffff  ................
 200f8 ffffffff ffffffff ffffffff ffffffff  ................
 20108 ffffffff ffffffff ffffffff ffffffff  ................
 20118 ffffffff ffffffff ffffffff ffffffff  ................
 20128 ffffffff ffffffff ffffffff ffffffff  ................
 20138 ffffffff ffffffff ffffffff ffffffff  ................
 20148 ffffffff ffffffff ffffffff ffffffff  ................
 20158 ffffffff ffffffff ffffffff ffffffff  ................
 20168 ffffffff ffffffff ffffffff ffffffff  ................
 20178 ffffffff ffffffff ffff9e9b 97455060  .............EP`
 20188 907e74ff ffff4e4b 488a7b75 b49b8fd4  .~t...NKH.{u....
 20198 c0b68d8d 8cffffff ffffffff ffffffff  ................
 201a8 ffffffff ffffffff ffffffff ffffffff  ................
 201b8 ffffffff ffffffff ffffffff ffffffff  ................
 201c8 ffffffff ffffffff ffffffff ffffffff  ................
 201d8 ffffffff ffffffff ffffffff ffffffff  ................
 201e8 fffffff9 fafb6862 5fc1bcba 696a6a9a  ......hb_...ijj.
 201f8 918ebcbd beffffff ffffffff ffffffff  ................
 20208 ffffffff ffffffff ffffffff ffffffff  ................
 20218 ffffffff ffffffff ffffffff ffffffff  ................
 20228 ffffffff ffffffff ffffffff ffffffff  ................
 20238 ffffffff ffffff88 8d975473 a96b8fcc  ..........Ts.k..
 20248 bab4af5f 666f546b 94f7d1bb e7dcd64e  ..._foTk.......N
 20258 4541bcb1 aca7a5a5 ffffffff ffffffff  EA..............
 20268 ffffffff ffffffff ffffffff ffffffff  ................
 20278 ffffffff ffffffff ffffffff ffffffff  ................
 20288 ffffffff ffffffff ffffffff ffffffff  ................
 20298 ffffffff ffffffff ffffffff ffffffff  ................
 202a8 aaababc1 b5b06767 66fff7ef a99e99cf  ......ggf.......
 202b8 cac7f0dc d27c7570 88909ad1 cec9ffff  .....|up........
 202c8 ffffffff ffffffff ffffffff ffffffff  ................
 202d8 ffffffff ffffffff ffffffff ffffffff  ................
 202e8 ffffffff ffffffff ffffffff ffffffff  ................
 202f8 ffffffff ffffff4f 668d7594 c97290c2  .......Of.u..r..
 20308 6584b770 8fc27395 cc687083 0c1422ff  e..p..s..hp...".
 20318 eddf807c 7aebecec ffffffff ffffffff  ...|z...........
 20328 ffffffff ffffffff ffffffff ffffffff  ................
 20338 ffffffff ffffffff ffffffff ffffffff  ................
 20348 ffffffff ffffffff ffffffff ffffffff  ................
 20358 ffffffff ffffffff ffffffff ffffffff  ................
 20368 ffffff92 8f8df0dd d5aaa6a2 fff9eb5b  ...............[
 20378 5b63b7b6 b65f7091 6f90c85a 78a94357  [c..._p.o..Zx.CW
 20388 78667288 7c8189b1 afaaffff ffffffff  xfr.|...........
 20398 ffffffff ffffffff ffffffff ffffffff  ................
 203a8 ffffffff ffffffff ffffffff ffffffff  ................
 203b8 ffffffff bab9b666 88c07290 c2728ec0  .......f..r..r..
 203c8 728fbe72 8fbf728f c17496cc 7094d042  r..r..r..t..p..B
 203d8 4141fcfc fcffffff ffffffff ffffffff  AA..............
 203e8 ffffffff ffffffff ffffffff ffffffff  ................
 203f8 ffffffff ffffffff ffffffff ffffffff  ................
 20408 ffffffff ffffffff ffffffff ffffffff  ................
 20418 ffffffff ffffffff ffffffff ffffffff  ................
 20428 ffffffff ffffacab a8586784 8b98af64  .........Xg....d
 20438 85bc5773 a17595cc 7290c271 8fbe7391  ..Ws.u..r..q..s.
 20448 c2718fc1 7394ce44 6296c2c0 bcffffff  .q..s..Db.......
 20458 ffffffff ffffffff ffffffff ffffffff  ................
 20468 ffffffff ffffffff ffffffff ffffffff  ................
 20478 ffffffff 586a8a74 93ca7190 c17190c2  ....Xj.t..q..q..
 20488 728ebf71 8ebf7290 c47293c8 606f8bff  r..q..r..r..`o..
 20498 ffffffff ffffffff ffffffff ffffffff  ................
 204a8 ffffffff ffffffff ffffffff ffffffff  ................
 204b8 ffffffff ffffffff ffffffff ffffffff  ................
 204c8 ffffffff ffffffff ffffffff ffffffff  ................
 204d8 ffffffff ffffffff ffffffff ffffffff  ................
 204e8 ffffffff ffffffff ffc6c8ca 6f91c94d  ............o..M
 204f8 6388728f c0718ebe 7391c671 8ebe708d  c.r..q..s..q..p.
 20508 bc728fc0 7594c94d 6793d1cf caffffff  .r..u..Mg.......
 20518 ffffffff ffffffff ffffffff ffffffff  ................
 20528 ffffffff ffffffff ffffffff ffffffff  ................
 20538 ff7d828a 6c8dc673 91c47392 c5718fc2  .}..l..s..s..q..
 20548 7290c271 8fc17391 c46e8ec6 a5aebcff  r..q..s..n......
 20558 ffffffff ffffffff ffffffff ffffffff  ................
 20568 ffffffff ffffffff ffffffff ffffffff  ................
 20578 ffffffff ffffffff ffffffff ffffffff  ................
 20588 ffffffff ffffffff ffffffff ffffffff  ................
 20598 ffffffff ffffffff ffffffff ffffffff  ................
 205a8 ffffffff ffffffff ffffffff 8e8b8864  ...............d
 205b8 82b77390 c2718fbf 7391c473 91c3718f  ..s..q..s..s..q.
 205c8 c07390c4 7493c766 82b35760 6fccc9c4  .s..t..f..W`o...
 205d8 fffffaff ffffffff ffffffff ffffffff  ................
 205e8 ffffffff fffcfaf9 e1dfdedd dbd87376  ..............sv
 205f8 7a6283bb 7492c672 90c37290 c37391c4  zb..t..r..r..s..
 20608 7390c372 90c37390 c37797ce 444d5ba6  s..r..s..w..DM[.
 20618 a9aab7b6 b5ffffff ffffffff ffffffff  ................
 20628 ffffffff ffffffff ffffffff ffffffff  ................
 20638 ffffffff ffffffff ffffffff ffffffff  ................
 20648 ffffffff ffffffff ffffffff ffffffff  ................
 20658 ffffffff ffffffff ffffffff ffffffff  ................
 20668 ffffffff ffffffff fffffffd 35486976  ............5Hiv
 20678 94c67391 c57390c5 7392c572 8fc1718f  ..s..s..s..r..q.
 20688 c17290c3 7392c474 92c57494 cc5e7eb2  .r..s..t..t..^~.
 20698 4a638d5b 6c8b7180 9a5f6166 9697979b  Jc.[l.q.._af....
 206a8 a1a78793 9b8b9aa5 95a6b250 575b607e  ...........PW[`~
 206b8 b37593c6 7391c472 90c3728f c37492c5  .u..s..r..r..t..
 206c8 7392c473 90c47290 c27392c8 5f6a75af  s..s..r..s.._ju.
 206d8 c0c69dab b272797d 929393f4 f3f2ffff  .....ry}........
 206e8 ffffffff ffffffff ffffffff ffffffff  ................
 206f8 ffffffff ffffffff ffffffff ffffffff  ................
 20708 ffffffff ffffffff ffffffff ffffffff  ................
 20718 ffffffff ffffffff ffffffff ffffffff  ................
 20728 ffffffff ffffffff ffafaca6 6486c076  ............d..v
 20738 96c9718d bc718fbe 728fc171 8ebf7190  ..q..q..r..q..q.
 20748 c1718fc2 7492c572 8fc37493 c77798d1  .q..t..r..t..w..
 20758 51699360 7189808d 98becfdb c9dbe9c8  Qi.`q...........
 20768 d8e7c4d6 e6c6d8e7 cbd8e24b 60817593  ...........K`.u.
 20778 c67290c1 7290c174 92c67290 c37290c1  .r..r..t..r..r..
 20788 7391c472 91c4718e be7695c7 36415855  s..r..q..v..6AXU
 20798 6584636f 82838a90 b6c1c572 7c829192  e.co.......r|...
 207a8 92ffffff ffffffff ffffffff ffffffff  ................
 207b8 ffffffff ffffffff ffffffff ffffffff  ................
 207c8 ffffffff ffffffff ffffffff ffffffff  ................
 207d8 ffffffff ffffffff ffffffff ffffffff  ................
 207e8 ffffffff ffffffff ff979693 80aef881  ................
 207f8 acf07da4 e47493c6 708cbb71 8ebf7190  ..}..t..p..q..q.
 20808 c27390c3 7492c577 96cc5a75 a55f6d7b  .s..t..w..Zu._m{
 20818 c2cfd7cd ddeac2d5 e3c3d4e2 bccfddbe  ................
 20828 d0dec0d2 e0cbdce8 707a847c a5e681a8  ........pz.|....
 20838 e882acec 82aced83 aef083ad ef7b9fdb  .............{..
 20848 7290c473 91c3718e bd7694c7 48556f6e  r..s..q..v..HUon
 20858 85af6b81 aa677eaa 4b5b7e74 7f8aaebc  ..k..g~.K[~t....
 20868 c1747a7d fdfbfaff ffffffff ffffffff  .tz}............
 20878 ffffffff ffffffff ffffffff ffffffff  ................
 20888 ffffffff ffffffff ffffffff ffffffff  ................
 20898 ffffffff ffffffff ffffffff ffffffff  ................
 208a8 ffffffff ffffffff ffa4a29e 93b9f89d  ................
 208b8 bbee87af ee81acf0 7a9ed970 8dbe718f  ........z..p..q.
 208c8 c27390c3 7898cf4d 638793a1 a8d2e2ee  .s..x..Mc.......
 208d8 c6d5e2b8 cbd9b8cd dbc2d2e0 b9cddcbb  ................
 208e8 cedcc5d4 e1cadae6 637b9d85 b5fe84b0  ........c{......
 208f8 f482aced 81abeb83 aef085b2 f485b2f6  ................
 20908 7fa6e673 92c67390 c26c88b5 47556f6e  ...s..s..l..GUon
 20918 82ab6b80 a86b80aa 6c82ae6a 81b15565  ..k..k..l..j..Ue
 20928 819ba7ac 71797ff7 f5f4ffff ffffffff  ....qy..........
 20938 ffffffff ffffffff ffffffff ffffffff  ................
 20948 ffffffff ffffffff ffffffff ffffffff  ................
 20958 ffffffff ffffffff ffffffff ffffffff  ................
 20968 ffffffff ffffffff ffd4d2cd 889fc5bc  ................
 20978 d3f8a9c2 ec8db1ed 85b0f47f a5e6718e  ..............q.
 20988 c17695ca 4c6184a6 b7bfc8d9 e6c3d3e0  .v..La..........
 20998 bed0deb5 cadab9cd dbc0d1df bed0deb7  ................
 209a8 ccdbbfd0 decddce6 5d779c98 befa8eb5  ........]w......
 209b8 f282aef3 82aef084 b0f384b1 f384b0f2  ................
 209c8 84aef17b a0de7594 c74f6485 6275996c  ...{..u..Od.bu.l
 209d8 81ab6b80 aa6b80aa 6a7fa96c 81ac6e84  ..k..k..j..l..n.
 209e8 b2546689 88969d78 8085ffff ffffffff  .Tf....x........
 209f8 ffffffff ffffffff ffffffff ffffffff  ................
 20a08 ffffffff ffffffff ffffffff ffffffff  ................
 20a18 ffffffff ffffffff ffffffff ffffffff  ................
 20a28 ffffffff ffffffff ffffffff 738098bd  ............s...
 20a38 d6feb9cf f3a8c4f1 8cb4f58a b5f880a7  ................
 20a48 e859729e a4b6bfc1 d4e1c3d3 e1c2d3e0  .Yr.............
 20a58 bdcfddb8 ccdab9cd dcbdcedd bed0deb5  ................
 20a68 cad9c4d3 e1c4d6e1 6981a6b6 d0fbb1c9  ........i.......
 20a78 f192b8f4 82aff385 b1f284b1 f383b0f3  ................
 20a88 83aff283 adf07999 d03e4e68 6f85b16c  ......y..>Nho..l
 20a98 83ae6b82 ad6b80aa 6a81aa6c 80ac6c81  ..k..k..j..l..l.
 20aa8 ac6d82ad 576b938e 99a0797b 7cffffff  .m..Wk....y{|...
 20ab8 ffffffff ffffffff ffffffff ffffffff  ................
 20ac8 ffffffff ffffffff ffffffff ffffffff  ................
 20ad8 ffffffff ffffffff ffffffff ffffffff  ................
 20ae8 ffffffff ffffffff ffffffff aeafb2a9  ................
 20af8 c6f4bcd3 f7b2cdf5 91b7f58f b5f586b0  ................
 20b08 f672818c bfd4e2c5 d4e1c4d3 e0c1d2e0  .r..............
 20b18 bfd1dfbb cedcb7cb dabacddc c2d3e0bf  ................
 20b28 d0debccf dcb8cdd9 7288a5b4 d0fdb0cc  ........r.......
 20b38 f4adc9f5 86b2f384 b0f283af f284b1f3  ................
 20b48 84b0f385 b2f67d9f db394761 5e75a24f  ......}..9Ga^u.O
 20b58 648d566d 986279a8 6c83b26f 86b26c82  d.Vm.by.l..o..l.
 20b68 ae6b80ab 6d81aa53 678b838f 96a9a8a8  .k..m..Sg.......
 20b78 ffffffff ffffffff ffffffff ffffffff  ................
 20b88 ffffffff ffffffff ffffffff ffffffff  ................
 20b98 ffffffff ffffffff ffffffff ffffffff  ................
 20ba8 ffffffff ffffffff ffffffff ffffff7e  ...............~
 20bb8 8ea69cc3 ff97bbf5 8fb5f594 bbfd637b  ..............c{
 20bc8 a3bbcfd9 bdcedcc2 d2dfc2d2 e0c3d4e2  ................
 20bd8 c1d2dfb8 ccdab4c9 d8baccdb becfdcb8  ................
 20be8 cbd9b1c5 d4b4cad8 8498aba5 c3f6b2cb  ................
 20bf8 f4b3cdf4 94b9f582 aff283af f183aff1  ................
 20c08 84b0f387 b5f96588 c37b776f d7d6d4d7  ......e..{wo....
 20c18 d4cfc4c2 bd9c9b9a 5a606d35 46676c85  ........Z`m5Fgl.
 20c28 b67088b7 6c82ab6d 84af5d73 946d797d  .p..l..m..]s.my}
 20c38 ffffffff ffffffff ffffffff ffffffff  ................
 20c48 ffffffff ffffffff ffffffff ffffffff  ................
 20c58 ffffffff ffffffff ffffffff ffffffff  ................
 20c68 ffffffff ffffffff ffffffff fffffffe  ................
 20c78 f9f2718f bd92bbff 90b5f493 bbff7482  ..q...........t.
 20c88 8ecadfec d3e7f3d7 ebf7d8ec f7daedf8  ................
 20c98 d5eaf6cc e4f1c9e0 eebdd3e2 b4cad8af  ................
 20ca8 c4d3afc4 d4b0c5d6 b1c4ce6a 8bc0abc6  ...........j....
 20cb8 f3b4cef5 94baf482 b0f284b0 f282aced  ................
 20cc8 82adee88 b8ff5867 80ffffff ffffffff  ......Xg........
 20cd8 ffffffff ffffffff fffffffa f7f37475  ..............tu
 20ce8 76415276 728cbd6f 89b5718f c3758aa0  vARvr..o..q..u..
 20cf8 a1a09dff ffffffff ffffffff ffffffff  ................
 20d08 ffffffff ffffffff ffffffff ffffffff  ................
 20d18 ffffffff ffffffff ffffffff ffffffff  ................
 20d28 ffffffff ffffffff ffffffff ffffffff  ................
 20d38 ffffefeb e46885b6 97c0ff67 86bdc9dd  .....h.....g....
 20d48 e3dcf1fe dcf0fddd f0fcdff0 fcdef0fc  ................
 20d58 ddf0fcdc f0fcd1e9 f5c9e3f2 c8e2f1c4  ................
 20d68 ddecbdd5 e4b5ccda bbcfdb7c 8fa386b3  ...........|....
 20d78 fa91b8f5 85b1f384 b0f385b0 f282aced  ................
 20d88 84aff158 80bdbbb7 afffffff ffffffff  ...X............
 20d98 ffffffff ffffffff ffffffff ffffffff  ................
 20da8 ffe5e3dd 3c465b72 8fc2718e bd6b8bc0  ....<F[r..q..k..
 20db8 5a5e5eff ffffffff ffffffff ffffffff  Z^^.............
 20dc8 ffffffff ffffffff ffffffff ffffffff  ................
 20dd8 ffffffff ffffffff ffffffff ffffffff  ................
 20de8 ffffffff ffffffff ffffffff ffffffff  ................
 20df8 ffffffff fff9f5ee 5b6e8e69 84ade9fd  ........[n.i....
 20e08 ffdcf0fc dbeffcde f0fbddf0 fcdef0fc  ................
 20e18 d8ecf8db eefac8e3 f1c9e4f2 cae4f2ca  ................
 20e28 e6f4cae5 f3cbe4f1 d1e8f5b2 bec35374  ..............St
 20e38 a885b4f9 84b0f285 b1f383b0 f383adef  ................
 20e48 83b2fa60 666fffff ffffffff ffffffff  ...`fo..........
 20e58 ffffffff ffffffff ffffffff ffffffff  ................
 20e68 ffffffff fffff93a 45597595 c87695c8  .......:EYu..v..
 20e78 324765f8 f6f2ffff ffffffff ffffffff  2Ge.............
 20e88 ffffffff ffffffff ffffffff ffffffff  ................
 20e98 ffffffff ffffffff ffffffff ffffffff  ................
 20ea8 ffffffff ffffffff ffffffff ffffffff  ................
 20eb8 ffffffff ffffffff ffffff80 878ae6fa  ................
 20ec8 ffddf0fb ddf0fbdd f0fcdef0 fbd5ebf6  ................
 20ed8 d0e9f6d3 eaf6c8e3 f1c9e4f2 cae3f1c9  ................
 20ee8 e4f2cce6 f2d6edf9 dff6ff9b aaae82b1  ................
 20ef8 fc84b1f3 85b1f385 b1f284b1 f388b7fd  ................
 20f08 4b6691ff fbf4ffff ffffffff ffffffff  Kf..............
 20f18 ffffffff ffffffff ffffffff ffffffff  ................
 20f28 ffffffff ffffffed eae3445b 817594c8  ..........D[.u..
 20f38 6c96d9ab a8a2ffff ffffffff ffffffff  l...............
 20f48 ffffffff ffffffff ffffffff ffffffff  ................
 20f58 ffffffff ffffffff ffffffff ffffffff  ................
 20f68 ffffffff ffffffff ffffffff ffffffff  ................
 20f78 ffffffff ffffffff ffffffb2 babee3f5  ................
 20f88 ffdef0fc ddf0fbdd f0fcd8ec f8c8e4f2  ................
 20f98 daedf9cc e5f3cae3 f1cae3f1 c9e3f1ca  ................
 20fa8 e4f1d2eb f8d6ecf9 dcf4ff8a 9eb183b2  ................
 20fb8 fa85b1f2 85b1f384 b1f284b2 f572a2ea  .............r..
 20fc8 a7a5a2ff ffffffff ffffffff ffffffff  ................
 20fd8 ffffffff ffffffff ffffffff ffffffff  ................
 20fe8 ffffffff ffffffff ffff898a 8a6b8dc6  .............k..
 20ff8 84b4ff86 8e98ffff ffffffff ffffffff  ................
 21008 ffffffff ffffffff ffffffff ffffffff  ................
 21018 ffffffff ffffffff ffffffff ffffffff  ................
 21028 ffffffff ffffffff ffffffff ffffffff  ................
 21038 ffffffff ffffffff ffffffb0 b9bee2f5  ................
 21048 ffddf0fb dcf0fcdc effacae5 f4d8ecf8  ................
 21058 d1e9f5cc e6f4cbe6 f3c9e3f1 c9e3f1cd  ................
 21068 e6f4d4ec f8d0e9f6 def6ff6f 87a684b4  ...........o....
 21078 fa85b1f2 85b1f285 b1f287b8 ff586a83  .............Xj.
 21088 ffffffff ffffffff ffffffff ffffffff  ................
 21098 ffffffff ffffffff ffffffff ffffffff  ................
 210a8 ffffffff ffffffff ffffffff ff496187  .............Ia.
 210b8 88baff7f 8da2ffff ffffffff ffffffff  ................
 210c8 ffffffff ffffffff ffffffff ffffffff  ................
 210d8 ffffffff ffffffff ffffffff ffffffff  ................
 210e8 ffffffff ffffffff ffffffff ffffffff  ................
 210f8 ffffffff ffffffff ffffff8f 989ce5f8  ................
 21108 ffdff0fb dff0fbd4 ecf8d8ec f9d6ecf8  ................
 21118 cee8f6cf e8f5cbe5 f3c9e3f1 cbe4f1d1  ................
 21128 e9f7cee8 f5cfe9f6 d9eff656 75a487b5  ...........Vu...
 21138 fa85b1f3 85b1f287 b5f95d83 bdeae4dc  ..........].....
 21148 ffffffff ffffffff ffffffff ffffffff  ................
 21158 ffffffff ffffffff ffffffff ffffffff  ................
 21168 ffffffff ffffffff ffffffff ff908f8e  ................
 21178 7eb2ff7b 8ca4ffff ffffffff ffffffff  ~..{............
 21188 ffffffff ffffffff ffffffff ffffffff  ................
 21198 ffffffff ffffffff ffffffff ffffffff  ................
 211a8 ffffffff ffffffff ffffffff ffffffff  ................
 211b8 ffffffff ffffffff ffffff90 999de4f8  ................
 211c8 ffddf0fb ddeffade f0fbd7ec f9d0e9f7  ................
 211d8 d1eaf7ce e8f4cae4 f2cbe4f1 cde7f5ce  ................
 211e8 e7f5cde7 f4d6effd 9cacb073 9fe286b2  ...........s....
 211f8 f583b0f2 84b1f47c adf7999b 9fffffff  .......|........
 21208 ffffffff ffffffff ffffffff ffffffff  ................
 21218 ffffffff ffffffff ffffffff ffffffff  ................
 21228 ffffffff ffffffff ffffffff fffff8ee  ................
 21238 557bb889 94aaffff ffffffff ffffffff  U{..............
 21248 ffffffff ffffffff ffffffff ffffffff  ................
 21258 ffffffff ffffffff ffffffff ffffffff  ................
 21268 ffffffff ffffffff ffffffff ffffffff  ................
 21278 ffffffff ffffffff ffffff9d a4a7e2f7  ................
 21288 ffdeeffb ddf0fbd5 ecf8d1ea f7d4ebf9  ................
 21298 d0e9f6cb e6f3cbe5 f3cde7f5 cce6f4cb  ................
 212a8 e6f3cee8 f5ddf6ff 6e829586 b5fd83af  ........n.......
 212b8 f283aeef 86b5fe58 6f93ffff ffffffff  .......Xo.......
 212c8 ffffffff ffffffff ffffffff ffffffff  ................
 212d8 ffffffff ffffffff ffffffff ffffffff  ................
 212e8 ffffffff ffffffff fffffaee f3bad3e9  ................
 212f8 5383b04c 87cc7a92 ddc4c2db ffffffff  S..L..z.........
 21308 ffffffff ffffffff ffffffff ffffffff  ................
 21318 ffffffff ffffffff ffffffff ffffffff  ................
 21328 ffffffff ffffffff ffffffff ffffffff  ................
 21338 ffffffff ffffffff ffffffa5 a9aadcf4  ................
 21348 ffdceffa d3eaf6d0 eaf7d3eb f8d2ebf8  ................
 21358 cde6f4cc e6f4cee8 f6cce5f3 c9e4f2cd  ................
 21368 e6f3d5ed f9d6edf5 4e699489 b8ff7ea5  ........Ni....~.
 21378 e37898ce 526e9cec e7e0ffff ffffffff  .x..Rn..........
 21388 ffffffff ffffffff ffffffff ffffffff  ................
 21398 ffffffff ffffffff ffffffff ffffffff  ................
 213a8 ffffffff ffffffb3 aed052b6 e780edff  ..........R.....
 213b8 7ac0dd6d d3f63d88 fa427af4 3355c0ff  z..m..=..Bz.3U..
 213c8 ffffffff ffffffff ffffffff ffffffff  ................
 213d8 ffffffff ffffffff ffffffff ffffffff  ................
 213e8 757c8880 8081d4d0 c9d7d4cf c8c7c4c2  u|..............
 213f8 bfbbc8c6 c2dbd7d2 f3f0eab4 b2aed9f4  ................
 21408 ffd0e9f6 d0e9f7d3 ebf7d3eb f8cfe8f6  ................
 21418 cee7f4d0 e9f7cde6 f4c9e4f1 cbe4f1d5  ................
 21428 ecf8e1f8 ff7b8a91 82b2fb7f a5e37592  .....{........u.
 21438 c56683b2 7e7b78d4 d0cabbb9 b5d3d0ca  .f..~{x.........
 21448 f8f5f1ff ffffffff ffffffff ffffffff  ................
 21458 ffffffff ffffffff ffffffff ffffffff  ................
 21468 ffffffff ffffff6c 7cc96fc9 ff8ee8fe  .......l|.o.....
 21478 6be3ff9c edff427e f43b75f6 6a7dcfff  k.....B~.;u.j}..
 21488 ffffffff ffffffff ffffffff ffffffff  ................
 21498 ffffffff ffffffff ffffffff ffffffff  ................
 214a8 8e9aae87 b5fb6891 d26082b9 5f7eaf5e  ......h..`.._~.^
 214b8 7db05e7c b15875a7 526e9d26 3551c1d8  }.^|.Xu.Rn.&5Q..
 214c8 e1d3ecfb d3eaf7d4 ecf9d0e9 f6cfe8f6  ................
 214d8 d1eaf7ce e8f5cae5 f2cae4f2 d4ebf7da  ................
 214e8 f0fce0f6 fe4a6389 7ca3e349 5a784f62  .....Jc.|..IZxOb
 214f8 854c5f7f 5c77a45c 7aab5e7b ac526c99  .L_.\w.\z.^{.Rl.
 21508 41577d4f 5f7a7f84 8ed8d5cf ffffffff  AW}O_z..........
 21518 ffffffff ffffffff ffffffff ffffffff  ................
 21528 ffffffff d2c5da5b b4ea73c4 ff73e1fe  .......[..s..s..
 21538 78e2fe77 e9ff6bab f83169f4 3569dcff  x..w..k..1i.5i..
 21548 fff8ffff ffffffff ffffffff ffffffff  ................
 21558 ffffffff ffffffff ffffffff fffffcf2  ................
 21568 60779c82 aef383ad ee84aef1 84aff083  `w..............
 21578 adef83ae f083aced 7fa7e67e a5e65158  ...........~..QX
 21588 56def8ff d4ecf9d1 eaf7cfe9 f6d2ebf7  V...............
 21598 d1e9f7cc e6f4cce5 f3d3ebf7 d8eefae6  ................
 215a8 fdff707e 8684aff8 6688ba87 b4f889b7  ..p~....f.......
 215b8 fc8ab8ff 85b1f484 aef284af f082abec  ................
 215c8 7b9fda4c 6083495f 854c6898 4b5464a2  {..L`.I_.Lh.KTd.
 215d8 a09bfcfb f9ffffff ffffffff ffffffff  ................
 215e8 ffa5a2c7 4db9e46c eaff6ddb ff5fbdfb  ....M..l..m.._..
 215f8 9eebff61 e3ff8dd2 fc3f79f3 2e74f6aa  ...a.....?y..t..
 21608 b6dcffff ffffffff ffffffff ffffffff  ................
 21618 ffffffff ffffffff ffffe6e2 dd526d95  .............Rm.
 21628 84b2f982 abed82ab ec82aaeb 81abec82  ................
 21638 adef84b0 f385b2f4 84b2f58c bdff2e3c  ...............<
 21648 53d8f1fb d4ecf9d1 eaf7d3eb f8d3ebf8  S...............
 21658 cfe9f6cf e8f5d5ec f9d6edfa dbf3ffbb  ................
 21668 cccf5b7e b586aff2 85aef084 b0f283af  ..[~............
 21678 f182aced 85b2f582 acec81ab ec82abec  ................
 21688 83b0f397 bffe556a 8c7593c7 7594cb68  ......Uj.u..u..h
 21698 90d37d85 90ffffff ffffffff ffffdcd3  ..}.............
 216a8 e348a3dc 6ee6ff6a e1fe6de9 ff458af5  .H..n..j..m..E..
 216b8 a7ddfd75 e6fe7ae2 fe6896f5 3c8ffc5d  ...u..z..h..<..]
 216c8 a2d9ffff ffffffff ffffffff ffffffff  ................
 216d8 ffffffff ffffffca c9c74966 9482b4ff  ..........If....
 216e8 85b1f481 aaeb82ab ec81aaeb 82adee83  ................
 216f8 aff183af f385b1f3 84b1f387 b6fa5c80  ..............\.
 21708 b7889aa5 d9f3ffd4 ebf7d7ed f9d4ecf8  ................
 21718 d4ebf8db eefadaef fbd4ecf9 dff6fd4e  ...............N
 21728 66888ab9 ff81aaeb 82abeb84 aff183af  f...............
 21738 f181a9ea 81abed84 b1f381ab eb81aaeb  ................
 21748 85b1f474 9bd7718e c17391c4 7493c65b  ...t..q..s..t..[
 21758 76a3a09e 9cffffff ffffffff ffffe6d9  v...............
 21768 e754caf2 6cddff6b e6fe74e9 ff67b1f8  .T..l..k..t..g..
 21778 728af07f e6ff87e8 ff8bc0fb 5d79d55b  r...........]y.[
 21788 c5e8e0d7 e6ffffff ffffffff ffffffff  ................
 21798 ffffffff ffffffff ffffebe7 e069717f  .............iq.
 217a8 6794d981 b0f881ae f485aff2 84b0f384  g...............
 217b8 b0f384b1 f385b1f2 85b1f389 b7fb5672  ..............Vr
 217c8 9e6080b1 d8edf3dd f0fcdef0 fcddf0fc  .`..............
 217d8 daeefadf f1fcd6ed f9e5ffff 5f707f83  ............_p..
 217e8 b2fb85b2 f483aef0 82acee84 aff284b0  ................
 217f8 f381abeb 81abeb84 b0f283ae f081aced  ................
 21808 84b0f285 b4f784af f27492c6 647da84e  .........t..d}.N
 21818 6d9f2d49 78c5c3c0 ffffffff ffffffff  m.-Ix...........
 21828 ff74abd5 64ddff5c abfa6fed ff6fbbfa  .t..d..\..o..o..
 21838 3a70f152 a7f988da feacefff 9195c17e  :p.R...........~
 21848 8ec0eeed f4ffffff ffffffff ffffffff  ................
 21858 ffffffff ffffffff ffffffff ffc1c0bf  ................
 21868 cbc6be7d 838d7680 8e4f70a5 80b0f989  ...}..v..Op.....
 21878 b8fd86b1 f485b1f3 84b1f287 b5f96081  ..............`.
 21888 b27eacf4 7c91a8e5 fdffd0e5 f2c4dbe8  .~..|...........
 21898 bed5e4c8 dbe8d3eb fa78888f 76a2ea86  .........x..v...
 218a8 b5f884b0 f384b0f2 83b0f285 b1f383b0  ................
 218b8 f383b0f2 83aef184 b1f383ae f083aef0  ................
 218c8 86b4f984 b5fe628a c77dabf5 6183bddd  ......b..}..a...
 218d8 d8d0ffff ffffffff ffffffff ffffffff  ................
 218e8 fffef0f4 5ec4e342 86f754b0 fa5f8af1  ....^..B..T.._..
 218f8 4679f23b 5df060b7 faa1f0ff 95c4e4cf  Fy.;].`.........
 21908 c6dbffff ffffffff ffffffff ffffffff  ................
 21918 ffffffff ffffffff ffffffff ffffffff  ................
 21928 ffffffff ffffffff fff7f2eb 80838744  ...............D
 21938 608b7faf f887b7fd 86b3f585 b1f5779f  `.............w.
 21948 db6f95ce 76a0e479 8996bed5 e3b1c7d6  .o..v..y........
 21958 c5d5e2c6 dbe96874 7b5a74a4 7797cd7e  ......ht{Zt.w..~
 21968 a3e184b1 f483b0f2 83aff285 b1f383b1  ................
 21978 f284b0f3 84b0f386 b3f783b3 fa6d99dd  .............m..
 21988 526a9089 8c92e6e0 d8aeb0b3 6f82a06d  Rj..........o..m
 21998 7581ffff ffffffff ffffffff ffffffff  u...............
 219a8 ffffffff b8bada67 9ff84281 f4397ff4  .......g..B..9..
 219b8 5a87f136 52ef55a4 f8a9efff 5ddafdca  Z..6R.U.....]...
 219c8 ccdfffff ffffffff ffffffff ffffffff  ................
 219d8 ffffffff ffffffff ffffffff ffffffff  ................
 219e8 ffffffff ffffffff ffffffff ffffffff  ................
 219f8 fffb8b8c 8c48628a 6f9ce187 b7ff87b3  .....Hb.o.......
 21a08 f77193c9 7491c166 83b75f72 86b0bdc5  .q..t..f.._r....
 21a18 919ea448 5563607c aa7492c3 718dbc70  ...HUc`|.t..q..p
 21a28 8cba799c d584b1f4 84b1f384 b1f384b2  ..y.............
 21a38 f586b4fa 82b5fe60 89c97383 9abebbb6  .......`..s.....
 21a48 ffffffff ffffffff ffffffff ffffffff  ................
 21a58 ffffffff ffffffff ffffffff ffffffff  ................
 21a68 ffffffff fffcf752 6dda628b f24682f3  .......Rm.b..F..
 21a78 5189f335 5ff15ba1 f887eeff 62b5fe58  Q..5_.[.....b..X
 21a88 91d0ffff ffffffff ffffffff ffffffff  ................
 21a98 ffffffff ffffffff ffffffff ffffffff  ................
 21aa8 ffffffff ffffffff ffffffff ffffffff  ................
 21ab8 ffffffff ffffffff beb9b361 728a6086  ...........ar.`.
 21ac8 c37a99cd 718ebe73 90c06d8b c1506893  .z..q..s..m..Ph.
 21ad8 4e648c76 94cb7390 c0708dbe 708dbd70  Nd.v..s..p..p..p
 21ae8 8ebd708d be7a9eda 88b6fb84 b5fc73a3  ..p..z........s.
 21af8 eb58759f 8e96a2ef e9e1ffff ffffffff  .Xu.............
 21b08 ffffffff ffffffff ffffffff ffffffff  ................
 21b18 ffffffff ffffffff ffffffff ffffffff  ................
 21b28 ffffffff ffffff31 5ed46b90 f45f89f1  .......1^.k.._..
 21b38 648cf03f 73f262c6 fb59b5fb 4480f955  d..?s.b..Y..D..U
 21b48 65b8ffff ffffffff ffffffff ffffffff  e...............
 21b58 ffffffff ffffffff ffffffff ffffffff  ................
 21b68 ffffffff ffffffff ffffffff ffffffff  ................
 21b78 ffffffff ffffffff ffffffff ffffc9c3  ................
 21b88 b82e3b53 7695c773 93c66685 b66f8fc4  ..;Sv..s..f..o..
 21b98 7291c476 94c87390 c0708dbc 718ebd71  r..v..s..p..q..q
 21ba8 8ebd7491 c4708ec3 5677ab75 869ec0bd  ..t..p..Vw.u....
 21bb8 b8ffffff ffffffff ffffffff ffffffff  ................
 21bc8 ffffffff ffffffff ffffffff ffffffff  ................
 21bd8 ffffffff ffffffff ffffffff ffffffff  ................
 21be8 ffffffff fffffc30 71df61a0 f8808dee  .......0q.a.....
 21bf8 5f89f147 7bf274da ff3681f8 777cbfff  _..G{.t..6..w|..
 21c08 ffffffff ffffffff ffffffff ffffffff  ................
 21c18 ffffffff ffffffff ffffffff ffffffff  ................
 21c28 ffffffff ffffffff ffffffff ffffffff  ................
 21c38 ffffffff ffffffff cecbc671 7a8b516a  ...........qz.Qj
 21c48 937397ca 4b628457 5f747173 88777a92  .s..Kb.W_tqs.wz.
 21c58 57658059 78a67898 d0728fbf 718ebd72  We.Yx.x..r..q..r
 21c68 90c36f8e c4444a53 ffffffff ffffffff  ..o..DJS........
 21c78 ffffffff ffffffff ffffffff ffffffff  ................
 21c88 ffffffff ffffffff ffffffff ffffffff  ................
 21c98 ffffffff ffffffff ffffffff ffffffff  ................
 21ca8 ffffffff fffffd54 c4ea72d8 ff70b0fb  .......T..r..p..
 21cb8 4a7ef33a 79f36bad fc6176cd ffffffff  J~.:y.k..av.....
 21cc8 ffffffff ffffffff ffffffff ffffffff  ................
 21cd8 ffffffff ffffffff ffffffff ffffffff  ................
 21ce8 ffffffff ffffffff ffffffff ffffffff  ................
 21cf8 ffffcdc9 c35c6a82 5c7db56e 94cf5d6a  .....\j.\}.n..]j
 21d08 85675172 d0bdcdd4 c3d5cfbe d1cebccf  .gQr............
 21d18 d4c1d4b1 9fac5158 6d6c8ec3 7391c373  ......QXml..s..s
 21d28 90c37493 ca586a89 ffffffff ffffffff  ..t..Xj.........
 21d38 ffffffff ffffffff ffffffff ffffffff  ................
 21d48 ffffffff ffffffff ffffffff ffffffff  ................
 21d58 ffffffff ffffffff ffffffff ffffffff  ................
 21d68 ffffffff ffffff35 5ca470ea ff4b9ed9  .......5\.p..K..
 21d78 6b87ee3d 7cf4377e f7a5aedc ffffffff  k..=|.7~........
 21d88 ffffffff ffffffff ffffffff ffffffff  ................
 21d98 ffffffff ffffffff ffffffff ffffffff  ................
 21da8 ffffffff ffffffff ffffffff ffffff67  ...............g
 21db8 6e7b5777 ab799ed7 58729a64 5176997a  n{Ww.y..Xr.dQv.z
 21dc8 9a916fa5 9274a4b4 a0bcc6b7 cac9bbcd  ..o..t..........
 21dd8 c8bacccb bccfd9c7 d84d4a4a 7193c772  .........MJJq..r
 21de8 90c37391 c55976a8 cccac5ff ffffffff  ..s..Yv.........
 21df8 ffffffff ffffffff ffffffff ffffffff  ................
 21e08 ffffffff ffffffff ffffffff ffffffff  ................
 21e18 ffffffff ffffffff ffffffff ffffffff  ................
 21e28 ffffffff ffffffd2 c3da6bc8 ed8aa2c5  ..........k.....
 21e38 3974e868 8ef22768 f4c0c3df ffffffff  9t.h..'h........
 21e48 ffffffff ffffffff ffffffff ffffffff  ................
 21e58 ffffffff ffffffff ffffffff ffffffff  ................
 21e68 ffffffff ffffffff fff1ede6 4c5d7b70  ............L]{p
 21e78 93cf7b9f da526181 78607396 70a08f69  ..{..Ra.x`s.p..i
 21e88 9b906b9b 936ea18f 6ba09473 a6a085af  ..k..n..k..s....
 21e98 ab94b6b3 9fbcb7a3 c2a28a95 37395179  ............79Qy
 21ea8 9ad0728f c06f8fc3 828994ff ffffffff  ..r..o..........
 21eb8 ffffffff ffffffff ffffffff ffffffff  ................
 21ec8 ffffffff ffffffff ffffffff ffffffff  ................
 21ed8 ffffffff ffffffff ffffffff ffffffff  ................
 21ee8 ffffffff ffffffff ffff779f cdd5cedb  ..........w.....
 21ef8 3468dc3d 7df54378 f1d2d1e2 ffffffff  4h.=}.Cx........
 21f08 ffffffff ffffffff ffffffff ffffffff  ................
 21f18 ffffffff ffffffff ffffffff ffffffff  ................
 21f28 ffffffff fffff8f4 ee485f85 789ad566  .........H_.x..f
 21f38 799b544e 4d4c3840 585e7859 729a6586  y.TNML8@X^xYr.e.
 21f48 b46281ad 55668a5b 5e805d4d 6e6d4c71  .b..Uf.[^.]MnmLq
 21f58 926b9f90 6ca28f6d a29170a7 90689c35  .k..l..m..p..h.5
 21f68 4b6b7896 ca7291c1 4a628afb f8f2ffff  Kkx..r..Jb......
 21f78 ffffffff ffffffff ffffffff ffffffff  ................
 21f88 ffffffff ffffffff ffffffff ffffffff  ................
 21f98 ffffffff ffffffff ffffffff ffffffff  ................
 21fa8 ffffffff ffffffff ffffc8c4 dcffffff  ................
 21fb8 5a7ed931 6af63c75 ece7e1e6 ffffffff  Z~.1j.<u........
 21fc8 ffffffff ffffffff ffffffff ffffffff  ................
 21fd8 ffffffff ffffffff ffffffff ffffffff  ................
 21fe8 ffffffff ffff6f7c 937698d3 6381b182  ......o|.v..c...
 21ff8 78715f72 927eabee 89b8fe85 b1f684af  xq_r.~..........
 22008 f285b0f3 86b2f685 b4f684b3 f6719bd3  .............q..
 22018 4d648955 5272604a 6a815c8b 7c72789c  Md.URr`Jj.\.|rx.
 22028 86756384 b8728fc0 6a8bc198 9a9effff  .uc..r..j.......
 22038 ffffffff ffffffff ffffffff ffffffff  ................
 22048 ffffffff ffffffff ffffffff ffffffff  ................
 22058 ffffffff ffffffff ffffffff ffffffff  ................
 22068 ffffffff ffffffff ffffffff ffffffff  ................
 22078 8e9dda39 79f91d47 cdf0eced ffffffff  ...9y..G........
 22088 ffffffff ffffffff ffffffff ffffffff  ................
 22098 ffffffff ffffffff ffffffff ffffffff  ................
 220a8 ffffffed eae55370 a2576d92 556f9881  ......Sp.Wm.Uo..
 220b8 b1f988b8 ff87b4f8 6889bc82 a8e482ac  ........h.......
 220c8 ed81abeb 83acee73 97cf7ca6 e388b5f9  .......s..|.....
 220d8 89b8fe87 b9ff7da9 e7536f97 63748d86  ......}..So.ct..
 220e8 7b773039 527a99cd 7291c345 556dffff  {w09Rz..r..EUm..
 220f8 ffffffff ffffffff ffffffff ffffffff  ................
 22108 ffffffff ffffffff ffffffff ffffffff  ................
 22118 ffffffff ffffffff ffffffff ffffffff  ................
 22128 ffffffff ffffffff ffffffff ffffffff  ................
 22138 a3afe040 7df18083 b8fdfbfb ffffffff  ...@}...........
 22148 ffffffff ffffffff ffffffff ffffffff  ................
 22158 ffffffff ffffffff ffffffff ffffffff  ................
 22168 ffffffee ece65b77 a86586b9 8bbbff84  ......[w.e......
 22178 b2f484b1 f383aff2 8cb2ee94 b9f282af  ................
 22188 f283aef0 82acec7e a7e67da6 e585b2f4  .......~..}.....
 22198 85b1f385 b1f386b3 f785b1f5 7697cf74  ............v..t
 221a8 97d0546b 90597096 7795c746 608bf0ed  ..Tk.Yp.w..F`...
 221b8 e9ffffff ffffffff ffffffff ffffffff  ................
 221c8 ffffffff ffffffff ffffffff ffffffff  ................
 221d8 ffffffff ffffffff ffffffff ffffffff  ................
 221e8 ffffffff ffffffff ffffffff ffffffff  ................
 221f8 ced2ea65 73b8ffff ffffffff ffffffff  ...es...........
 22208 ffffffff ffffffff ffffffff ffffffff  ................
 22218 ffffffff ffffffff ffffffff ffffffff  ................
 22228 ffffffff ffff6880 a687b4fa 87b4f886  ......h.........
 22238 b4f784b0 f282acec 82acec8b b2f083b0  ................
 22248 f384b0f3 83aff184 b0f285b1 f385b1f3  ................
 22258 85b1f285 b0f384b1 f386b3f7 7ea2de72  ............~..r
 22268 8fc17797 cb6984b3 7391c467 88bfc5c2  ..w..i..s..g....
 22278 bdffffff ffffffff ffffffff ffffffff  ................
 22288 ffffffff ffffffff ffffffff ffffffff  ................
 22298 ffffffff ffffffff ffffffff ffffffff  ................
 222a8 ffffffff ffffffff ffffffff ffffffff  ................
 222b8 fbfafbf2 f0f5ffff ffffffff ffffffff  ................
 222c8 ffffffff ffffffff ffffffff ffffffff  ................
 222d8 ffffffff ffffffff ffffffff ffffffff  ................
 222e8 ffffffff ffff8490 a185b5ff 6d97da74  ............m..t
 222f8 99d184b1 f481abeb 81abeb81 abed84af  ................
 22308 f284b1f3 84b1f385 b0f384b1 f383b1f3  ................
 22318 84b0f385 b1f383ae f186b3f9 83b3ff7a  ...............z
 22328 9fde7593 c67492c5 7290c367 87bbaeab  ..u..t..r..g....
 22338 a6ffffff ffffffff ffffffff ffffffff  ................
 22348 ffffffff ffffffff ffffffff ffffffff  ................
 22358 ffffffff ffffffff ffffffff ffffffff  ................
 22368 ffffffff ffffffff ffffffff ffffffff  ................
 22378 ffffffff ffffffff ffffffff ffffffff  ................
 22388 ffffffff ffffffff ffffffff ffffffff  ................
 22398 ffffffff ffffffff ffffffff ffffffff  ................
 223a8 ffffffff ffffbdc0 c4536785 7f570067  .........Sg..W.g
 223b8 675187b8 ff81abec 81abeb81 abec82af  gQ..............
 223c8 f185b0f3 85b1f283 b0f283b0 f384aff2  ................
 223d8 83b0f384 b1f386b3 f9556e8f 7e6b2c61  .........Un.~k,a
 223e8 6c745d7d ba7798d2 7493c75c 78a8c6c3  lt]}.w..t..\x...
 223f8 beffffff ffffffff ffffffff ffffffff  ................
 22408 ffffffff ffffffff ffffffff ffffffff  ................
 22418 ffffffff ffffffff ffffffff ffffffff  ................
 22428 ffffffff ffffffff ffffffff ffffffff  ................
 22438 ffffffff ffffffff ffffffff ffffffff  ................
 22448 ffffffff ffffffff ffffffff ffffffff  ................
 22458 ffffffff ffffffff ffffffff ffffffff  ................
 22468 ffffffff ffffe5e7 ea74633a 5b45005e  .........tc:[E.^
 22478 665e89ba ff83aef0 81abec81 acec82ae  f^..............
 22488 ef84b0f3 85b1f383 b1f384b0 f383aef1  ................
 22498 81abec83 aff188b9 ff5a5735 b19641ac  .........ZW5..A.
 224a8 9135785b 00565e64 7798d440 5983f6f3  .5x[.V^dw..@Y...
 224b8 efffffff ffffffff ffffffff ffffffff  ................
 224c8 ffffffff ffffffff ffffffff ffffffff  ................
 224d8 ffffffff ffffffff ffffffff ffffffff  ................
 224e8 ffffffff ffffffff ffffffff ffffffff  ................
 224f8 ffffffff ffffffff ffffffff ffffffff  ................
 22508 ffffffff ffffffff ffffffff ffffffff  ................
 22518 ffffffff ffffffff ffffffff ffffffff  ................
 22528 ffffffff ffffe8e9 ef594912 03000042  .........YI....B
 22538 55748bba ff84b0f2 82aef083 acee82ad  Ut..............
 22548 ee83b0f3 85b1f284 b1f383b1 f482adf0  ................
 22558 81aaeb81 aaec88ba ff55470b 76600b30  .........UG.v`.0
 22568 2d2b8771 2386722e 789ada40 5476ffff  -+.q#.r.x..@Tv..
 22578 ffffffff ffffffff ffffffff ffffffff  ................
 22588 ffffffff ffffffff ffffffff ffffffff  ................
 22598 ffffffff ffffffff ffffffff ffffffff  ................
 225a8 ffffffff ffffffff ffffffff ffffffff  ................
 225b8 ffffffff ffffffff ffffffff ffffffff  ................
 225c8 ffffffff ffffffff ffffffff ffffffff  ................
 225d8 ffffffff ffffffff ffffffff ffffffff  ................
 225e8 ffffffff ffffd7d9 de382500 7d737063  .........8%.}spc
 225f8 7ba287b5 fb84b0f2 84b0f282 aff182ae  {...............
 22608 f183b0f1 84b0f384 b1f285b1 f384b0f3  ................
 22618 82abed81 aaed8abb ff32290b 2c230211  .........2).,#..
 22628 1011624f 08736222 6e92d374 8094ffff  ..bO.sb"n..t....
 22638 ffffffff ffffffff ffffffff ffffffff  ................
 22648 ffffffff ffffffff ffffffff ffffffff  ................
 22658 ffffffff ffffffff ffffffff ffffffff  ................
 22668 ffffffff ffffffff ffffffff ffffffff  ................
 22678 ffffffff ffffffff ffffffff ffffffff  ................
 22688 ffffffff ffffffff ffffffff ffffffff  ................
 22698 ffffffff ffffffff ffffffff ffffffff  ................
 226a8 ffffffff fffff1f2 f7231200 ffffff5e  .........#.....^
 226b8 7caa85b4 f983aff2 83aff283 b0f283b0  |...............
 226c8 f284b0f2 84aff284 b0f283af f184b0f1  ................
 226d8 85b1f484 b0f38dbe ff020000 8075701e  .............up.
 226e8 1a18614c 00454127 7297d8a4 a9b2ffff  ..aL.EA'r.......
 226f8 ffffffff ffffffff ffffffff ffffffff  ................
 22708 ffffffff ffffffff ffffffff ffffffff  ................
 22718 ffffffff ffffffff ffffffff ffffffff  ................
 22728 ffffffff ffffffff ffffffff ffffffff  ................
 22738 ffffffff ffffffff ffffffff ffffffff  ................
 22748 ffffffff ffffffff ffffffff ffffffff  ................
 22758 ffffffff ffffffff ffffffff ffffffff  ................
 22768 ffffffff ffffffff ff16110f fff8ef66  ...............f
 22778 90cf87b3 f781aced 82acec82 adee83b0  ................
 22788 f284b0f1 83b0f182 aff181aa eb81aaea  ................
 22798 82abec85 b1f485b5 fd312a24 ffffff6a  .........1*$...j
 227a8 605a1812 013d4e6c 6687bfc0 bdb9ffff  `Z...=Nlf.......
 227b8 ffffffff ffffffff ffffffff ffffffff  ................
 227c8 ffffffff ffffffff ffffffff ffffffff  ................
 227d8 ffffffff ffffffff ffffffff ffffffff  ................
 227e8 ffffffff ffffffff ffffffff ffffffff  ................
 227f8 ffffffff ffffffff ffffffff ffffffff  ................
 22808 ffffffff ffffffff ffffffff ffffffff  ................
 22818 ffffffff ffffffff ffffffff ffffffff  ................
 22828 ffffffff ffffffff ff4e4944 c0b7b38c  .........NID....
 22838 b9fd7ba1 dc82aced 81aaeb81 aaeb82ad  ..{.............
 22848 ee84b0f2 84b0f383 aef081aa eb82acec  ................
 22858 82abec85 aff178a1 e2787577 ffffff7c  ......x..xuw...|
 22868 77730300 006f8ec3 4f6893ff fffeffff  ws...o..Oh......
 22878 ffffffff ffffffff ffffffff ffffffff  ................
 22888 ffffffff ffffffff ffffffff ffffffff  ................
 22898 ffffffff ffffffff ffffffff ffffffff  ................
 228a8 ffffffff ffffffff ffffffff ffffffff  ................
 228b8 ffffffff ffffffff ffffffff ffffffff  ................
 228c8 ffffffff ffffffff ffffffff ffffffff  ................
 228d8 ffffffff ffffffff ffffffff ffffffff  ................
 228e8 ffffffff ffffffff ff51565c 36445aa2  .........QV\6DZ.
 228f8 cbff6b8e c383adef 82abed81 aaeb82ac  ..k.............
 22908 ed84b0f3 84b1f285 b0f381ab eb82abec  ................
 22918 83aef07b 9dd380a7 e78e94a5 ffffff5c  ...{...........\
 22928 544c1218 217da0dc 738198ff ffffffff  TL..!}..s.......
 22938 ffffffff ffffffff ffffffff ffffffff  ................
 22948 ffffffff ffffffff ffffffff ffffffff  ................
 22958 ffffffff ffffffff ffffffff ffffffff  ................
 22968 ffffffff ffffffff ffffffff ffffffff  ................
 22978 ffffffff ffffffff ffffffff ffffffff  ................
 22988 ffffffff ffffffff ffffffff ffffffff  ................
 22998 ffffffff ffffffff ffffffff ffffffff  ................
 229a8 ffffffff ffffffff ff8799b6 87b9ff81  ................
 229b8 adef6f94 ce82aef0 81aaeb81 aaec82ac  ..o.............
 229c8 ee85b0f3 83b0f383 b1f383ae f081aaeb  ................
 229d8 85aff25a 749c92bb fc6781ac f1decf00  ...Zt....g......
 229e8 00006985 b66f90cb a5a8acff ffffffff  ..i..o..........
 229f8 ffffffff ffffffff ffffffff ffffffff  ................
 22a08 ffffffff ffffffff ffffffff ffffffff  ................
 22a18 ffffffff ffffffff ffffffff ffffffff  ................
 22a28 ffffffff ffffffff ffffffff ffffffff  ................
 22a38 ffffffff ffffffff ffffffff ffffffff  ................
 22a48 ffffffff ffffffff ffffffff ffffffff  ................
 22a58 ffffffff ffffffff ffffffff ffffffff  ................
 22a68 ffffffff ffffffff ffa2a3a4 7caef983  ............|...
 22a78 b0f38ab5 f78db4f2 7ea9ec82 abec84ad  ........~.......
 22a88 ed86b1f3 85b1f483 b1f385b1 f482acec  ................
 22a98 83aeee75 9dd979a2 e085b0f3 3c527669  ...u..y.....<Rvi
 22aa8 85b37795 c74d6793 fcf9f3ff ffffffff  ..w..Mg.........
 22ab8 ffffffff ffffffff ffffffff ffffffff  ................
 22ac8 ffffffff ffffffff ffffffff ffffffff  ................
 22ad8 ffffffff ffffffff ffffffff ffffffff  ................
 22ae8 ffffffff ffffffff ffffffff ffffffff  ................
 22af8 ffffffff ffffffff ffffffff ffffffff  ................
 22b08 ffffffff ffffffff ffffffff ffffffff  ................
 22b18 ffffffff ffffffff ffffffff ffffffff  ................
 22b28 ffffffff ffffffff ffffffff 506a9186  ............Pj..
 22b38 b7ff9fc0 f5b6cdf2 a1bfee87 aeee8bb1  ................
 22b48 ef8bb2f2 8ab3f486 b1f483ae f182aded  ................
 22b58 83aff185 b2f684b1 f483aef0 84adef73  ...............s
 22b68 91c27090 c46b7380 ffffffff ffffffff  ..p..ks.........
 22b78 ffffffff ffffffff ffffffff ffffffff  ................
 22b88 ffffffff ffffffff ffffffff ffffffff  ................
 22b98 ffffffff ffffffff ffffffff ffffffff  ................
 22ba8 ffffffff ffffffff ffffffff ffffffff  ................
 22bb8 ffffffff ffffffff ffffffff ffffffff  ................
 22bc8 ffffffff ffffffff ffffffff ffffffff  ................
 22bd8 ffffffff ffffffff ffffffff ffffffff  ................
 22be8 ffffffff ffffffff ffffffff cfcbc459  ...............Y
 22bf8 83c39cc1 fbb5ccf1 b8cdf1a2 bfef8cb2  ................
 22c08 f290b4f4 8fb4f48a b1f083ac ec81abed  ................
 22c18 82aeef84 b0f284b1 f384b1f4 7da3dd72  ............}..r
 22c28 8ebe4d69 98dcd9d3 ffffffff ffffffff  ..Mi............
 22c38 ffffffff ffffffff ffffffff ffffffff  ................
 22c48 ffffffff ffffffff ffffffff ffffffff  ................
 22c58 ffffffff ffffffff ffffffff ffffffff  ................
 22c68 ffffffff ffffffff ffffffff ffffffff  ................
 22c78 ffffffff ffffffff ffffffff ffffffff  ................
 22c88 ffffffff ffffffff ffffffff ffffffff  ................
 22c98 ffffffff ffffffff ffffffff ffffffff  ................
 22ca8 ffffffff ffffffff ffffffff ffffff81  ................
 22cb8 8386719e e5b6cef6 b6ccf0b8 cdf193b8  ..q.............
 22cc8 f591b8f6 90b6f58e b2f089af ed83aced  ................
 22cd8 82acee83 aff184b0 f385b3f7 789ad272  ............x..r
 22ce8 92c55960 6dffffff ffffffff ffffffff  ..Y`m...........
 22cf8 ffffffff ffffffff ffffffff ffffffff  ................
 22d08 ffffffff ffffffff ffffffff ffffffff  ................
 22d18 ffffffff ffffffff ffffffff ffffffff  ................
 22d28 ffffffff ffffffff ffffffff ffffffff  ................
 22d38 ffffffff ffffffff ffffffff ffffffff  ................
 22d48 ffffffff ffffffff ffffffff ffffffff  ................
 22d58 ffffffff ffffffff ffffffff ffffffff  ................
 22d68 ffffffff ffffffff ffffffff ffffffff  ................
 22d78 ffff6c74 7e81adf2 bad3fabd d2f49dc0  ..lt~...........
 22d88 f68fb6f5 91b8f68f b5f38cb1 ee84aded  ................
 22d98 82acee83 aef184b0 f383aef1 7999d13b  ............y..;
 22da8 5074f3f0 eaffffff ffffffff ffffffff  Pt..............
 22db8 ffffffff ffffffff ffffffff ffffffff  ................
 22dc8 ffffffff ffffffff ffffffff ffffffff  ................
 22dd8 ffffffff ffffffff ffffffff ffffffff  ................
 22de8 ffffffff ffffffff ffffffff ffffffff  ................
 22df8 ffffffff ffffffff ffffffff ffffffff  ................
 22e08 ffffffff ffffffff ffffffff ffffffff  ................
 22e18 ffffffff ffffffff ffffffff ffffffff  ................
 22e28 ffffffff ffffffff ffffffff ffffffff  ................
 22e38 ffffffff ff8d9196 6186c1a0 c7ff94bb  ........a.......
 22e48 fa90b6f4 91b7f590 b6f48ab0 ef83adee  ................
 22e58 82adef84 b0f286b4 f87ea3e4 3c537ac0  .........~..<Sz.
 22e68 bdb7ffff ffffffff ffffffff ffffffff  ................
 22e78 ffffffff ffffffff ffffffff ffffffff  ................
 22e88 ffffffff ffffffff ffffffff ffffffff  ................
 22e98 ffffffff ffffffff ffffffff ffffffff  ................
 22ea8 ffffffff ffffffff ffffffff ffffffff  ................
 22eb8 ffffffff ffffffff ffffffff ffffffff  ................
 22ec8 ffffffff ffffffff ffffffff ffffffff  ................
 22ed8 ffffffff ffffffff ffffffff ffffffff  ................
 22ee8 ffffffff ffffffff ffffffff ffffffff  ................
 22ef8 ffffffff ffffffff dad6cf61 70896e93  ...........ap.n.
 22f08 d18fb9fd 92bafc94 bcfe8bb5 f785b2f6  ................
 22f18 84b3f984 b4fd6991 d24a5466 dedad5ff  ......i..JTf....
 22f28 ffffffff ffffffff ffffffff ffffffff  ................
 22f38 ffffffff ffffffff ffffffff ffffffff  ................
 22f48 ffffffff ffffffff ffffffff ffffffff  ................
 22f58 ffffffff ffffffff ffffffff ffffffff  ................
 22f68 ffffffff ffffffff ffffffff ffffffff  ................
 22f78 ffffffff ffffffff ffffffff ffffffff  ................
 22f88 ffffffff ffffffff ffffffff ffffffff  ................
 22f98 ffffffff ffffffff ffffffff ffffffff  ................
 22fa8 ffffffff ffffffff ffffffff ffffffff  ................
 22fb8 ffffffff ffffffff ffffffff ffffe4df  ................
 22fc8 d8b1b8c2 8899b45b 73995a79 a7607faf  .......[s.Zy.`..
 22fd8 768eb193 9fafdeda d5ffffff ffffffff  v...............
 22fe8 ffffffff ffffffff ffffffff ffffffff  ................
 22ff8 ffffffff ffffffff ffffffff ffffffff  ................
 23008 ffffffff ffffffff ffffffff ffffffff  ................
 23018 ffffffff ffffffff ffffffff ffffffff  ................
 23028 ffffffff ffffffff ffffffff ffffffff  ................
 23038 ffffffff ffffffff ffffffff ffffffff  ................
 23048 ffffffff ffffffff ffffffff ffff0000  ................
Contents of section .comment:
 0000 4743433a 20282920 31342e32 2e3000    GCC: () 14.2.0. 
Contents of section .riscv.attributes:
 0000 41550000 00726973 63760001 4b000000  AU...riscv..K...
 0010 04100572 76333269 3270315f 66327032  ...rv32i2p1_f2p2
 0020 5f7a6963 73723270 305f7a76 65333278  _zicsr2p0_zve32x
 0030 3170305f 7a766536 34783170 305f7a76  1p0_zve64x1p0_zv
 0040 6c333262 3170305f 7a766c36 34623170  l32b1p0_zvl64b1p
 0050 30000801 0a0b                        0.....          
Contents of section .debug_line:
 0000 76000000 05000400 2e000000 010101fb  v...............
 0010 0e0d0001 01010100 00000100 00010101  ................
 0020 1f020000 00006200 00000201 1f020f02  ......b.........
 0030 8b000000 018b0000 00010005 023c0b01  .............<..
 0040 00032401 03010904 00010302 09040001  ..$.............
 0050 03010904 00010301 09040001 03020904  ................
 0060 00010301 09040001 03010904 00010301  ................
 0070 09040001 09040000 01014f01 00000500  ..........O.....
 0080 04002e00 00000101 01fb0e0d 00010101  ................
 0090 01000000 01000001 01011f02 00000000  ................
 00a0 62000000 02011f02 0f029400 00000194  b...............
 00b0 00000001 00050260 0b010003 c4000103  .......`........
 00c0 01090400 01030409 04000103 01090400  ................
 00d0 01030109 04000103 01090400 01030109  ................
 00e0 04000103 01090400 01030209 04000103  ................
 00f0 01090400 01030109 04000103 01090400  ................
 0100 01030209 04000103 02090400 01030109  ................
 0110 04000103 01090400 01030209 04000103  ................
 0120 01090400 01030109 04000103 02090400  ................
 0130 01030609 04000103 01090400 01030109  ................
 0140 04000103 01090400 01030509 04000103  ................
 0150 02090400 01030209 04000103 01090400  ................
 0160 01030209 04000103 02090400 01030109  ................
 0170 04000103 01090400 01030109 04000103  ................
 0180 04090400 01030109 04000103 01090400  ................
 0190 01030209 04000103 01090400 01030109  ................
 01a0 04000103 02090400 01030109 04000103  ................
 01b0 02090400 01030109 04000103 01090400  ................
 01c0 01030109 04000109 04000001 01        .............   
Contents of section .debug_line_str:
 0000 2f686f6d 652f7361 6d343036 30352f72  /home/sam40605/r
 0010 69736376 2d676e75 2d746f6f 6c636861  iscv-gnu-toolcha
 0020 696e2f62 75696c64 2d676363 2d6e6577  in/build-gcc-new
 0030 6c69622d 73746167 65322f72 69736376  lib-stage2/riscv
 0040 36342d75 6e6b6e6f 776e2d65 6c662f72  64-unknown-elf/r
 0050 76333269 2f696c70 33322f6c 69626763  v32i/ilp32/libgc
 0060 63002e2e 2f2e2e2f 2e2e2f2e 2e2f2e2e  c.../../../../..
 0070 2f2e2f67 63632f6c 69626763 632f636f  /./gcc/libgcc/co
 0080 6e666967 2f726973 6376006d 756c6469  nfig/riscv.muldi
 0090 332e5300 6469762e 5300               3.S.div.S.      
Contents of section .debug_info:
 0000 2d000000 05000104 00000000 01000000  -...............
 0010 003c0b01 00240000 00003200 00009400  .<...$....2.....
 0020 00000180 02a20000 002f3c0b 01002403  ........./<...$.
 0030 005b0000 00050001 04280000 00017a00  .[.......(....z.
 0040 0000600b 0100b401 ab000000 32000000  ..`.........2...
 0050 94000000 018002da 0000005d 600b0100  ...........]`...
 0060 840102ec 0000005d 680b0100 4802e300  .......]h...H...
 0070 00005d68 0b010048 02f60000 005db00b  ..]h...H.....]..
 0080 01001002 00010000 5de40b01 00300300  ........]....0..
Contents of section .debug_abbrev:
 0000 01110110 17110112 0f030e1b 0e250e13  .............%..
 0010 05000002 2e00030e 3f194915 1101120f  ........?.I.....
 0020 0000033b 00000000 01110110 17110112  ...;............
 0030 0f030e1b 0e250e13 05000002 2e00030e  .....%..........
 0040 3f194915 1101120f 0000033b 00000000  ?.I........;....
Contents of section .debug_aranges:
 0000 1c000000 02000000 00000400 00000000  ................
 0010 3c0b0100 24000000 00000000 00000000  <...$...........
 0020 1c000000 02003100 00000400 00000000  ......1.........
 0030 600b0100 b4000000 00000000 00000000  `...............
Contents of section .debug_str:
 0000 2e2e2f2e 2e2f2e2e 2f2e2e2f 2e2e2f2e  ../../../../../.
 0010 2f676363 2f6c6962 6763632f 636f6e66  /gcc/libgcc/conf
 0020 69672f72 69736376 2f6d756c 6469332e  ig/riscv/muldi3.
 0030 53002f68 6f6d652f 73616d34 30363035  S./home/sam40605
 0040 2f726973 63762d67 6e752d74 6f6f6c63  /riscv-gnu-toolc
 0050 6861696e 2f627569 6c642d67 63632d6e  hain/build-gcc-n
 0060 65776c69 622d7374 61676532 2f726973  ewlib-stage2/ris
 0070 63763634 2d756e6b 6e6f776e 2d656c66  cv64-unknown-elf
 0080 2f727633 32692f69 6c703332 2f6c6962  /rv32i/ilp32/lib
 0090 67636300 474e5520 41532032 2e34332e  gcc.GNU AS 2.43.
 00a0 31005f5f 6d756c73 6933002e 2e2f2e2e  1.__mulsi3.../..
 00b0 2f2e2e2f 2e2e2f2e 2e2f2e2f 6763632f  /../../.././gcc/
 00c0 6c696267 63632f63 6f6e6669 672f7269  libgcc/config/ri
 00d0 7363762f 6469762e 53005f5f 64697673  scv/div.S.__divs
 00e0 6933005f 5f686964 64656e5f 5f5f7564  i3.__hidden___ud
 00f0 69767369 33005f5f 756d6f64 73693300  ivsi3.__umodsi3.
 0100 5f5f6d6f 64736933 00                 __modsi3.       

Disassembly of section .text0:

00000000 <_start>:
   0:	00000093          	li	ra,0
   4:	00000113          	li	sp,0
   8:	00000193          	li	gp,0
   c:	00000213          	li	tp,0
  10:	00000293          	li	t0,0
  14:	00000313          	li	t1,0
  18:	00000393          	li	t2,0
  1c:	00000413          	li	s0,0
  20:	00000493          	li	s1,0
  24:	00000513          	li	a0,0
  28:	00000593          	li	a1,0
  2c:	00000613          	li	a2,0
  30:	00000693          	li	a3,0
  34:	00000713          	li	a4,0
  38:	00000793          	li	a5,0
  3c:	00000813          	li	a6,0
  40:	00000893          	li	a7,0
  44:	00000913          	li	s2,0
  48:	00000993          	li	s3,0
  4c:	00000a13          	li	s4,0
  50:	00000a93          	li	s5,0
  54:	00000b13          	li	s6,0
  58:	00000b93          	li	s7,0
  5c:	00000c13          	li	s8,0
  60:	00000c93          	li	s9,0
  64:	00000d13          	li	s10,0
  68:	00000d93          	li	s11,0
  6c:	00000e13          	li	t3,0
  70:	00000e93          	li	t4,0
  74:	00000f13          	li	t5,0
  78:	00000f93          	li	t6,0
  7c:	00020197          	auipc	gp,0x20
  80:	78818193          	addi	gp,gp,1928 # 20804 <_gp>

00000084 <init_bss>:
  84:	00023517          	auipc	a0,0x23
  88:	fd450513          	addi	a0,a0,-44 # 23058 <__data_end>
  8c:	00023597          	auipc	a1,0x23
  90:	fc858593          	addi	a1,a1,-56 # 23054 <_gp+0x2850>
  94:	00000613          	li	a2,0
  98:	070000ef          	jal	ra,108 <fill_block>

0000009c <init_sbss>:
  9c:	00020517          	auipc	a0,0x20
  a0:	f6450513          	addi	a0,a0,-156 # 20000 <copy_addr>
  a4:	00020597          	auipc	a1,0x20
  a8:	f5c58593          	addi	a1,a1,-164 # 20000 <copy_addr>
  ac:	00000613          	li	a2,0
  b0:	058000ef          	jal	ra,108 <fill_block>

000000b4 <write_stack_pattern>:
  b4:	00023517          	auipc	a0,0x23
  b8:	fa450513          	addi	a0,a0,-92 # 23058 <__data_end>
  bc:	00024597          	auipc	a1,0x24
  c0:	f9858593          	addi	a1,a1,-104 # 24054 <__data_end+0xffc>
  c4:	00000613          	li	a2,0
  c8:	040000ef          	jal	ra,108 <fill_block>

000000cc <init_stack>:
  cc:	00024117          	auipc	sp,0x24
  d0:	f8c10113          	addi	sp,sp,-116 # 24058 <__stack>

000000d4 <write_test_pattern>:
  d4:	20100517          	auipc	a0,0x20100
  d8:	f2c50513          	addi	a0,a0,-212 # 20100000 <_test_start>
  dc:	20101597          	auipc	a1,0x20101
  e0:	f2058593          	addi	a1,a1,-224 # 20100ffc <_test_start+0xffc>
  e4:	00000613          	li	a2,0
  e8:	020000ef          	jal	ra,108 <fill_block>

000000ec <SystemInit>:
  ec:	030000ef          	jal	ra,11c <boot>
  f0:	115100ef          	jal	ra,10a04 <main>

000000f4 <SystemExit>:
  f4:	00030297          	auipc	t0,0x30
  f8:	f0828293          	addi	t0,t0,-248 # 2fffc <_sim_end>
  fc:	fff00313          	li	t1,-1
 100:	0062a023          	sw	t1,0(t0)

00000104 <dead_loop>:
 104:	0000006f          	j	104 <dead_loop>

00000108 <fill_block>:
 108:	00a5e863          	bltu	a1,a0,118 <fb_end>
 10c:	00c52023          	sw	a2,0(a0)
 110:	00450513          	addi	a0,a0,4
 114:	ff5ff06f          	j	108 <fill_block>

00000118 <fb_end>:
 118:	00008067          	ret

0000011c <boot>:
 11c:	fe010113          	addi	sp,sp,-32
 120:	00112e23          	sw	ra,28(sp)
 124:	00812c23          	sw	s0,24(sp)
 128:	02010413          	addi	s0,sp,32
 12c:	100207b7          	lui	a5,0x10020
 130:	fef42623          	sw	a5,-20(s0)
 134:	30046073          	csrsi	mstatus,8
 138:	00001fb7          	lui	t6,0x1
 13c:	800f8f93          	addi	t6,t6,-2048 # 800 <boot+0x6e4>
 140:	304fa073          	csrs	mie,t6
 144:	fec42783          	lw	a5,-20(s0)
 148:	20078793          	addi	a5,a5,512 # 10020200 <_end+0xfff0200>
 14c:	20000737          	lui	a4,0x20000
 150:	00070713          	mv	a4,a4
 154:	00e7a023          	sw	a4,0(a5)
 158:	fec42783          	lw	a5,-20(s0)
 15c:	30078793          	addi	a5,a5,768
 160:	00010737          	lui	a4,0x10
 164:	00070713          	mv	a4,a4
 168:	00e7a023          	sw	a4,0(a5)
 16c:	200017b7          	lui	a5,0x20001
 170:	c1478713          	addi	a4,a5,-1004 # 20000c14 <_dram_i_end>
 174:	200007b7          	lui	a5,0x20000
 178:	00078793          	mv	a5,a5
 17c:	40f707b3          	sub	a5,a4,a5
 180:	0027d713          	srli	a4,a5,0x2
 184:	fec42783          	lw	a5,-20(s0)
 188:	40078793          	addi	a5,a5,1024 # 20000400 <_dram_i_start+0x400>
 18c:	00170713          	addi	a4,a4,1 # 10001 <_imem_start+0x1>
 190:	00e7a023          	sw	a4,0(a5)
 194:	fec42783          	lw	a5,-20(s0)
 198:	10078793          	addi	a5,a5,256
 19c:	00100713          	li	a4,1
 1a0:	00e7a023          	sw	a4,0(a5)
 1a4:	10500073          	wfi
 1a8:	fec42783          	lw	a5,-20(s0)
 1ac:	20078793          	addi	a5,a5,512
 1b0:	20101737          	lui	a4,0x20101
 1b4:	00070713          	mv	a4,a4
 1b8:	00e7a023          	sw	a4,0(a5)
 1bc:	fec42783          	lw	a5,-20(s0)
 1c0:	30078793          	addi	a5,a5,768
 1c4:	00020737          	lui	a4,0x20
 1c8:	00470713          	addi	a4,a4,4 # 20004 <__sbss_end>
 1cc:	00e7a023          	sw	a4,0(a5)
 1d0:	000207b7          	lui	a5,0x20
 1d4:	00878713          	addi	a4,a5,8 # 20008 <__sdata_end>
 1d8:	000207b7          	lui	a5,0x20
 1dc:	00478793          	addi	a5,a5,4 # 20004 <__sbss_end>
 1e0:	40f707b3          	sub	a5,a4,a5
 1e4:	0027d713          	srli	a4,a5,0x2
 1e8:	fec42783          	lw	a5,-20(s0)
 1ec:	40078793          	addi	a5,a5,1024
 1f0:	00170713          	addi	a4,a4,1
 1f4:	00e7a023          	sw	a4,0(a5)
 1f8:	fec42783          	lw	a5,-20(s0)
 1fc:	10078793          	addi	a5,a5,256
 200:	00100713          	li	a4,1
 204:	00e7a023          	sw	a4,0(a5)
 208:	10500073          	wfi
 20c:	fec42783          	lw	a5,-20(s0)
 210:	20078793          	addi	a5,a5,512
 214:	20101737          	lui	a4,0x20101
 218:	00470713          	addi	a4,a4,4 # 20101004 <__data_paddr_start>
 21c:	00e7a023          	sw	a4,0(a5)
 220:	fec42783          	lw	a5,-20(s0)
 224:	30078793          	addi	a5,a5,768
 228:	00020737          	lui	a4,0x20
 22c:	00870713          	addi	a4,a4,8 # 20008 <__sdata_end>
 230:	00e7a023          	sw	a4,0(a5)
 234:	000237b7          	lui	a5,0x23
 238:	05878713          	addi	a4,a5,88 # 23058 <__data_end>
 23c:	000207b7          	lui	a5,0x20
 240:	00878793          	addi	a5,a5,8 # 20008 <__sdata_end>
 244:	40f707b3          	sub	a5,a4,a5
 248:	0027d713          	srli	a4,a5,0x2
 24c:	fec42783          	lw	a5,-20(s0)
 250:	40078793          	addi	a5,a5,1024
 254:	00170713          	addi	a4,a4,1
 258:	00e7a023          	sw	a4,0(a5)
 25c:	fec42783          	lw	a5,-20(s0)
 260:	10078793          	addi	a5,a5,256
 264:	00100713          	li	a4,1
 268:	00e7a023          	sw	a4,0(a5)
 26c:	10500073          	wfi
 270:	00000013          	nop
 274:	01c12083          	lw	ra,28(sp)
 278:	01812403          	lw	s0,24(sp)
 27c:	02010113          	addi	sp,sp,32
 280:	00008067          	ret

Disassembly of section .text1:

00010000 <_imem_start>:
   10000:	f8410113          	addi	sp,sp,-124
   10004:	00112023          	sw	ra,0(sp)
   10008:	00212223          	sw	sp,4(sp)
   1000c:	00312423          	sw	gp,8(sp)
   10010:	00412623          	sw	tp,12(sp)
   10014:	00512823          	sw	t0,16(sp)
   10018:	00612a23          	sw	t1,20(sp)
   1001c:	00712c23          	sw	t2,24(sp)
   10020:	00812e23          	sw	s0,28(sp)
   10024:	02912023          	sw	s1,32(sp)
   10028:	02a12223          	sw	a0,36(sp)
   1002c:	02b12423          	sw	a1,40(sp)
   10030:	02c12623          	sw	a2,44(sp)
   10034:	02d12823          	sw	a3,48(sp)
   10038:	02e12a23          	sw	a4,52(sp)
   1003c:	02f12c23          	sw	a5,56(sp)
   10040:	03012e23          	sw	a6,60(sp)
   10044:	05112023          	sw	a7,64(sp)
   10048:	05212223          	sw	s2,68(sp)
   1004c:	05312423          	sw	s3,72(sp)
   10050:	05412623          	sw	s4,76(sp)
   10054:	05512823          	sw	s5,80(sp)
   10058:	05612a23          	sw	s6,84(sp)
   1005c:	05712c23          	sw	s7,88(sp)
   10060:	05812e23          	sw	s8,92(sp)
   10064:	07912023          	sw	s9,96(sp)
   10068:	07a12223          	sw	s10,100(sp)
   1006c:	07b12423          	sw	s11,104(sp)
   10070:	07c12623          	sw	t3,108(sp)
   10074:	07d12823          	sw	t4,112(sp)
   10078:	07e12a23          	sw	t5,116(sp)
   1007c:	07f12c23          	sw	t6,120(sp)
   10080:	100000ef          	jal	ra,10180 <trap_handler>
   10084:	00012083          	lw	ra,0(sp)
   10088:	00412103          	lw	sp,4(sp)
   1008c:	00812183          	lw	gp,8(sp)
   10090:	00c12203          	lw	tp,12(sp)
   10094:	01012283          	lw	t0,16(sp)
   10098:	01412303          	lw	t1,20(sp)
   1009c:	01812383          	lw	t2,24(sp)
   100a0:	01c12403          	lw	s0,28(sp)
   100a4:	02012483          	lw	s1,32(sp)
   100a8:	02412503          	lw	a0,36(sp)
   100ac:	02812583          	lw	a1,40(sp)
   100b0:	02c12603          	lw	a2,44(sp)
   100b4:	03012683          	lw	a3,48(sp)
   100b8:	03412703          	lw	a4,52(sp)
   100bc:	03812783          	lw	a5,56(sp)
   100c0:	03c12803          	lw	a6,60(sp)
   100c4:	04012883          	lw	a7,64(sp)
   100c8:	04412903          	lw	s2,68(sp)
   100cc:	04812983          	lw	s3,72(sp)
   100d0:	04c12a03          	lw	s4,76(sp)
   100d4:	05012a83          	lw	s5,80(sp)
   100d8:	05412b03          	lw	s6,84(sp)
   100dc:	05812b83          	lw	s7,88(sp)
   100e0:	05c12c03          	lw	s8,92(sp)
   100e4:	06012c83          	lw	s9,96(sp)
   100e8:	06412d03          	lw	s10,100(sp)
   100ec:	06812d83          	lw	s11,104(sp)
   100f0:	06c12e03          	lw	t3,108(sp)
   100f4:	07012e83          	lw	t4,112(sp)
   100f8:	07412f03          	lw	t5,116(sp)
   100fc:	07812f83          	lw	t6,120(sp)
   10100:	07c10113          	addi	sp,sp,124
   10104:	30200073          	mret

00010108 <timer_interrupt_handler>:
   10108:	ff010113          	addi	sp,sp,-16
   1010c:	00112623          	sw	ra,12(sp)
   10110:	00812423          	sw	s0,8(sp)
   10114:	01010413          	addi	s0,sp,16
   10118:	30006073          	csrsi	mstatus,0
   1011c:	000207b7          	lui	a5,0x20
   10120:	0047a783          	lw	a5,4(a5) # 20004 <__sbss_end>
   10124:	10078793          	addi	a5,a5,256
   10128:	0007a023          	sw	zero,0(a5)
   1012c:	ed5ef06f          	j	0 <_start>
   10130:	00000013          	nop
   10134:	00c12083          	lw	ra,12(sp)
   10138:	00812403          	lw	s0,8(sp)
   1013c:	01010113          	addi	sp,sp,16
   10140:	00008067          	ret

00010144 <external_interrupt_handler>:
   10144:	fe010113          	addi	sp,sp,-32
   10148:	00112e23          	sw	ra,28(sp)
   1014c:	00812c23          	sw	s0,24(sp)
   10150:	02010413          	addi	s0,sp,32
   10154:	100207b7          	lui	a5,0x10020
   10158:	fef42623          	sw	a5,-20(s0)
   1015c:	30006073          	csrsi	mstatus,0
   10160:	fec42783          	lw	a5,-20(s0)
   10164:	10078793          	addi	a5,a5,256 # 10020100 <_end+0xfff0100>
   10168:	0007a023          	sw	zero,0(a5)
   1016c:	00000013          	nop
   10170:	01c12083          	lw	ra,28(sp)
   10174:	01812403          	lw	s0,24(sp)
   10178:	02010113          	addi	sp,sp,32
   1017c:	00008067          	ret

00010180 <trap_handler>:
   10180:	fe010113          	addi	sp,sp,-32
   10184:	00112e23          	sw	ra,28(sp)
   10188:	00812c23          	sw	s0,24(sp)
   1018c:	02010413          	addi	s0,sp,32
   10190:	344027f3          	csrr	a5,mip
   10194:	fef42623          	sw	a5,-20(s0)
   10198:	fec42783          	lw	a5,-20(s0)
   1019c:	0807f793          	andi	a5,a5,128
   101a0:	00078463          	beqz	a5,101a8 <trap_handler+0x28>
   101a4:	f65ff0ef          	jal	ra,10108 <timer_interrupt_handler>
   101a8:	fec42703          	lw	a4,-20(s0)
   101ac:	000017b7          	lui	a5,0x1
   101b0:	80078793          	addi	a5,a5,-2048 # 800 <boot+0x6e4>
   101b4:	00f777b3          	and	a5,a4,a5
   101b8:	00078463          	beqz	a5,101c0 <trap_handler+0x40>
   101bc:	f89ff0ef          	jal	ra,10144 <external_interrupt_handler>
   101c0:	00000013          	nop
   101c4:	01c12083          	lw	ra,28(sp)
   101c8:	01812403          	lw	s0,24(sp)
   101cc:	02010113          	addi	sp,sp,32
   101d0:	00008067          	ret

000101d4 <cubicInterpolateInt>:
   101d4:	fc010113          	addi	sp,sp,-64
   101d8:	02112e23          	sw	ra,60(sp)
   101dc:	02812c23          	sw	s0,56(sp)
   101e0:	02912a23          	sw	s1,52(sp)
   101e4:	04010413          	addi	s0,sp,64
   101e8:	fca42623          	sw	a0,-52(s0)
   101ec:	fcb42423          	sw	a1,-56(s0)
   101f0:	fcc42783          	lw	a5,-52(s0)
   101f4:	00478793          	addi	a5,a5,4
   101f8:	0007a703          	lw	a4,0(a5)
   101fc:	00070793          	mv	a5,a4
   10200:	00179793          	slli	a5,a5,0x1
   10204:	00e78733          	add	a4,a5,a4
   10208:	fcc42783          	lw	a5,-52(s0)
   1020c:	0007a783          	lw	a5,0(a5)
   10210:	40f70733          	sub	a4,a4,a5
   10214:	fcc42783          	lw	a5,-52(s0)
   10218:	00878793          	addi	a5,a5,8
   1021c:	0007a783          	lw	a5,0(a5)
   10220:	00078693          	mv	a3,a5
   10224:	00279793          	slli	a5,a5,0x2
   10228:	40f687b3          	sub	a5,a3,a5
   1022c:	00f70733          	add	a4,a4,a5
   10230:	fcc42783          	lw	a5,-52(s0)
   10234:	00c78793          	addi	a5,a5,12
   10238:	0007a783          	lw	a5,0(a5)
   1023c:	00f707b3          	add	a5,a4,a5
   10240:	4017d793          	srai	a5,a5,0x1
   10244:	fef42623          	sw	a5,-20(s0)
   10248:	fcc42783          	lw	a5,-52(s0)
   1024c:	0007a783          	lw	a5,0(a5)
   10250:	00179693          	slli	a3,a5,0x1
   10254:	fcc42783          	lw	a5,-52(s0)
   10258:	00478793          	addi	a5,a5,4
   1025c:	0007a703          	lw	a4,0(a5)
   10260:	00070793          	mv	a5,a4
   10264:	00279793          	slli	a5,a5,0x2
   10268:	00e787b3          	add	a5,a5,a4
   1026c:	40f007b3          	neg	a5,a5
   10270:	00f68733          	add	a4,a3,a5
   10274:	fcc42783          	lw	a5,-52(s0)
   10278:	00878793          	addi	a5,a5,8
   1027c:	0007a783          	lw	a5,0(a5)
   10280:	00279793          	slli	a5,a5,0x2
   10284:	00f70733          	add	a4,a4,a5
   10288:	fcc42783          	lw	a5,-52(s0)
   1028c:	00c78793          	addi	a5,a5,12
   10290:	0007a783          	lw	a5,0(a5)
   10294:	40f707b3          	sub	a5,a4,a5
   10298:	4017d793          	srai	a5,a5,0x1
   1029c:	fef42423          	sw	a5,-24(s0)
   102a0:	fcc42783          	lw	a5,-52(s0)
   102a4:	00878793          	addi	a5,a5,8
   102a8:	0007a703          	lw	a4,0(a5)
   102ac:	fcc42783          	lw	a5,-52(s0)
   102b0:	0007a783          	lw	a5,0(a5)
   102b4:	40f707b3          	sub	a5,a4,a5
   102b8:	4017d793          	srai	a5,a5,0x1
   102bc:	fef42223          	sw	a5,-28(s0)
   102c0:	fcc42783          	lw	a5,-52(s0)
   102c4:	0047a783          	lw	a5,4(a5)
   102c8:	fef42023          	sw	a5,-32(s0)
   102cc:	fc842583          	lw	a1,-56(s0)
   102d0:	fc842503          	lw	a0,-56(s0)
   102d4:	069000ef          	jal	ra,10b3c <__mulsi3>
   102d8:	00050793          	mv	a5,a0
   102dc:	fcf42e23          	sw	a5,-36(s0)
   102e0:	fc842583          	lw	a1,-56(s0)
   102e4:	fdc42503          	lw	a0,-36(s0)
   102e8:	055000ef          	jal	ra,10b3c <__mulsi3>
   102ec:	00050793          	mv	a5,a0
   102f0:	41f7d713          	srai	a4,a5,0x1f
   102f4:	0ff77713          	andi	a4,a4,255
   102f8:	00f707b3          	add	a5,a4,a5
   102fc:	4087d793          	srai	a5,a5,0x8
   10300:	fcf42c23          	sw	a5,-40(s0)
   10304:	fd842583          	lw	a1,-40(s0)
   10308:	fec42503          	lw	a0,-20(s0)
   1030c:	031000ef          	jal	ra,10b3c <__mulsi3>
   10310:	00050793          	mv	a5,a0
   10314:	00078493          	mv	s1,a5
   10318:	fdc42583          	lw	a1,-36(s0)
   1031c:	fe842503          	lw	a0,-24(s0)
   10320:	01d000ef          	jal	ra,10b3c <__mulsi3>
   10324:	00050793          	mv	a5,a0
   10328:	00f484b3          	add	s1,s1,a5
   1032c:	fc842583          	lw	a1,-56(s0)
   10330:	fe442503          	lw	a0,-28(s0)
   10334:	009000ef          	jal	ra,10b3c <__mulsi3>
   10338:	00050793          	mv	a5,a0
   1033c:	00879793          	slli	a5,a5,0x8
   10340:	00f486b3          	add	a3,s1,a5
   10344:	fe042703          	lw	a4,-32(s0)
   10348:	00070793          	mv	a5,a4
   1034c:	00e79793          	slli	a5,a5,0xe
   10350:	40e787b3          	sub	a5,a5,a4
   10354:	00279793          	slli	a5,a5,0x2
   10358:	00f687b3          	add	a5,a3,a5
   1035c:	4107d793          	srai	a5,a5,0x10
   10360:	fcf42a23          	sw	a5,-44(s0)
   10364:	fd442783          	lw	a5,-44(s0)
   10368:	0ff00713          	li	a4,255
   1036c:	00f75463          	ble	a5,a4,10374 <cubicInterpolateInt+0x1a0>
   10370:	0ff00793          	li	a5,255
   10374:	0007d463          	bgez	a5,1037c <cubicInterpolateInt+0x1a8>
   10378:	00000793          	li	a5,0
   1037c:	00078513          	mv	a0,a5
   10380:	03c12083          	lw	ra,60(sp)
   10384:	03812403          	lw	s0,56(sp)
   10388:	03412483          	lw	s1,52(sp)
   1038c:	04010113          	addi	sp,sp,64
   10390:	00008067          	ret

00010394 <bicubicInterpolateInt>:
   10394:	f7010113          	addi	sp,sp,-144
   10398:	08112623          	sw	ra,140(sp)
   1039c:	08812423          	sw	s0,136(sp)
   103a0:	09010413          	addi	s0,sp,144
   103a4:	f6a42e23          	sw	a0,-132(s0)
   103a8:	f6b42c23          	sw	a1,-136(s0)
   103ac:	f6c42a23          	sw	a2,-140(s0)
   103b0:	fe042623          	sw	zero,-20(s0)
   103b4:	0700006f          	j	10424 <bicubicInterpolateInt+0x90>
   103b8:	fe042423          	sw	zero,-24(s0)
   103bc:	0500006f          	j	1040c <bicubicInterpolateInt+0x78>
   103c0:	fe842783          	lw	a5,-24(s0)
   103c4:	00479793          	slli	a5,a5,0x4
   103c8:	f7c42703          	lw	a4,-132(s0)
   103cc:	00f70733          	add	a4,a4,a5
   103d0:	fec42783          	lw	a5,-20(s0)
   103d4:	00279793          	slli	a5,a5,0x2
   103d8:	00f707b3          	add	a5,a4,a5
   103dc:	0007a703          	lw	a4,0(a5)
   103e0:	fec42783          	lw	a5,-20(s0)
   103e4:	00279693          	slli	a3,a5,0x2
   103e8:	fe842783          	lw	a5,-24(s0)
   103ec:	00f686b3          	add	a3,a3,a5
   103f0:	f8040793          	addi	a5,s0,-128
   103f4:	00269693          	slli	a3,a3,0x2
   103f8:	00f687b3          	add	a5,a3,a5
   103fc:	00e7a023          	sw	a4,0(a5)
   10400:	fe842783          	lw	a5,-24(s0)
   10404:	00178793          	addi	a5,a5,1
   10408:	fef42423          	sw	a5,-24(s0)
   1040c:	fe842703          	lw	a4,-24(s0)
   10410:	00300793          	li	a5,3
   10414:	fae7d6e3          	ble	a4,a5,103c0 <bicubicInterpolateInt+0x2c>
   10418:	fec42783          	lw	a5,-20(s0)
   1041c:	00178793          	addi	a5,a5,1
   10420:	fef42623          	sw	a5,-20(s0)
   10424:	fec42703          	lw	a4,-20(s0)
   10428:	00300793          	li	a5,3
   1042c:	f8e7d6e3          	ble	a4,a5,103b8 <bicubicInterpolateInt+0x24>
   10430:	00400793          	li	a5,4
   10434:	0d17f057          	0xd17f057
   10438:	f8040793          	addi	a5,s0,-128
   1043c:	0207e007          	0x207e007
   10440:	f8040793          	addi	a5,s0,-128
   10444:	01078793          	addi	a5,a5,16
   10448:	0207e107          	0x207e107
   1044c:	f8040793          	addi	a5,s0,-128
   10450:	02078793          	addi	a5,a5,32
   10454:	0207e207          	0x207e207
   10458:	f8040793          	addi	a5,s0,-128
   1045c:	03078793          	addi	a5,a5,48
   10460:	0207e307          	0x207e307
   10464:	5e003457          	0x5e003457
   10468:	5e003557          	0x5e003557
   1046c:	5e003657          	0x5e003657
   10470:	5e003857          	0x5e003857
   10474:	00300793          	li	a5,3
   10478:	9627e457          	0x9627e457
   1047c:	00200793          	li	a5,2
   10480:	9607e557          	0x9607e557
   10484:	0a800457          	0xa800457
   10488:	ffb00793          	li	a5,-5
   1048c:	b627e557          	0xb627e557
   10490:	ffd00793          	li	a5,-3
   10494:	b647e457          	0xb647e457
   10498:	00400793          	li	a5,4
   1049c:	b647e557          	0xb647e557
   104a0:	02830457          	0x2830457
   104a4:	a680b457          	0xa680b457
   104a8:	0aa30557          	0xaa30557
   104ac:	a6a0b557          	0xa6a0b557
   104b0:	0a400657          	0xa400657
   104b4:	a6c0b657          	0xa6c0b657
   104b8:	000107b7          	lui	a5,0x10
   104bc:	ffc78793          	addi	a5,a5,-4 # fffc <_STACK_SIZE+0xeffc>
   104c0:	9627e857          	0x9627e857
   104c4:	f7842783          	lw	a5,-136(s0)
   104c8:	00879793          	slli	a5,a5,0x8
   104cc:	fef42023          	sw	a5,-32(s0)
   104d0:	fe042783          	lw	a5,-32(s0)
   104d4:	b6c7e857          	0xb6c7e857
   104d8:	f7842583          	lw	a1,-136(s0)
   104dc:	f7842503          	lw	a0,-136(s0)
   104e0:	65c000ef          	jal	ra,10b3c <__mulsi3>
   104e4:	00050793          	mv	a5,a0
   104e8:	fcf42e23          	sw	a5,-36(s0)
   104ec:	fdc42783          	lw	a5,-36(s0)
   104f0:	b6a7e857          	0xb6a7e857
   104f4:	f7842583          	lw	a1,-136(s0)
   104f8:	fdc42503          	lw	a0,-36(s0)
   104fc:	640000ef          	jal	ra,10b3c <__mulsi3>
   10500:	00050793          	mv	a5,a0
   10504:	41f7d713          	srai	a4,a5,0x1f
   10508:	0ff77713          	andi	a4,a4,255
   1050c:	00f707b3          	add	a5,a4,a5
   10510:	4087d793          	srai	a5,a5,0x8
   10514:	fcf42c23          	sw	a5,-40(s0)
   10518:	fd842783          	lw	a5,-40(s0)
   1051c:	b687e857          	0xb687e857
   10520:	fc040793          	addi	a5,s0,-64
   10524:	0207e827          	0x207e827
   10528:	fe042223          	sw	zero,-28(s0)
   1052c:	0580006f          	j	10584 <bicubicInterpolateInt+0x1f0>
   10530:	fe442703          	lw	a4,-28(s0)
   10534:	fc040793          	addi	a5,s0,-64
   10538:	00271713          	slli	a4,a4,0x2
   1053c:	00f707b3          	add	a5,a4,a5
   10540:	0007a783          	lw	a5,0(a5)
   10544:	4107d793          	srai	a5,a5,0x10
   10548:	fcf42823          	sw	a5,-48(s0)
   1054c:	fd042783          	lw	a5,-48(s0)
   10550:	0ff00713          	li	a4,255
   10554:	00f75463          	ble	a5,a4,1055c <bicubicInterpolateInt+0x1c8>
   10558:	0ff00793          	li	a5,255
   1055c:	0007d463          	bgez	a5,10564 <bicubicInterpolateInt+0x1d0>
   10560:	00000793          	li	a5,0
   10564:	fe442683          	lw	a3,-28(s0)
   10568:	fc040713          	addi	a4,s0,-64
   1056c:	00269693          	slli	a3,a3,0x2
   10570:	00e68733          	add	a4,a3,a4
   10574:	00f72023          	sw	a5,0(a4)
   10578:	fe442783          	lw	a5,-28(s0)
   1057c:	00178793          	addi	a5,a5,1
   10580:	fef42223          	sw	a5,-28(s0)
   10584:	fe442703          	lw	a4,-28(s0)
   10588:	00300793          	li	a5,3
   1058c:	fae7d2e3          	ble	a4,a5,10530 <bicubicInterpolateInt+0x19c>
   10590:	fc040793          	addi	a5,s0,-64
   10594:	f7442583          	lw	a1,-140(s0)
   10598:	00078513          	mv	a0,a5
   1059c:	c39ff0ef          	jal	ra,101d4 <cubicInterpolateInt>
   105a0:	fca42a23          	sw	a0,-44(s0)
   105a4:	fd442783          	lw	a5,-44(s0)
   105a8:	00078513          	mv	a0,a5
   105ac:	08c12083          	lw	ra,140(sp)
   105b0:	08812403          	lw	s0,136(sp)
   105b4:	09010113          	addi	sp,sp,144
   105b8:	00008067          	ret

000105bc <bicubicResizeInt>:
   105bc:	f5010113          	addi	sp,sp,-176
   105c0:	0a112623          	sw	ra,172(sp)
   105c4:	0a812423          	sw	s0,168(sp)
   105c8:	0a912223          	sw	s1,164(sp)
   105cc:	0b010413          	addi	s0,sp,176
   105d0:	f6a42623          	sw	a0,-148(s0)
   105d4:	f6b42423          	sw	a1,-152(s0)
   105d8:	f6c42223          	sw	a2,-156(s0)
   105dc:	f6d42023          	sw	a3,-160(s0)
   105e0:	f4e42e23          	sw	a4,-164(s0)
   105e4:	f4f42c23          	sw	a5,-168(s0)
   105e8:	f5042a23          	sw	a6,-172(s0)
   105ec:	f5142823          	sw	a7,-176(s0)
   105f0:	f6842783          	lw	a5,-152(s0)
   105f4:	fff78793          	addi	a5,a5,-1
   105f8:	00879713          	slli	a4,a5,0x8
   105fc:	f5c42783          	lw	a5,-164(s0)
   10600:	fff78793          	addi	a5,a5,-1
   10604:	00078593          	mv	a1,a5
   10608:	00070513          	mv	a0,a4
   1060c:	554000ef          	jal	ra,10b60 <__divsi3>
   10610:	00050793          	mv	a5,a0
   10614:	fcf42e23          	sw	a5,-36(s0)
   10618:	f6442783          	lw	a5,-156(s0)
   1061c:	fff78793          	addi	a5,a5,-1
   10620:	00879713          	slli	a4,a5,0x8
   10624:	f5842783          	lw	a5,-168(s0)
   10628:	fff78793          	addi	a5,a5,-1
   1062c:	00078593          	mv	a1,a5
   10630:	00070513          	mv	a0,a4
   10634:	52c000ef          	jal	ra,10b60 <__divsi3>
   10638:	00050793          	mv	a5,a0
   1063c:	fcf42c23          	sw	a5,-40(s0)
   10640:	fe042623          	sw	zero,-20(s0)
   10644:	2680006f          	j	108ac <bicubicResizeInt+0x2f0>
   10648:	fe042423          	sw	zero,-24(s0)
   1064c:	2480006f          	j	10894 <bicubicResizeInt+0x2d8>
   10650:	fdc42583          	lw	a1,-36(s0)
   10654:	fe842503          	lw	a0,-24(s0)
   10658:	4e4000ef          	jal	ra,10b3c <__mulsi3>
   1065c:	00050793          	mv	a5,a0
   10660:	fcf42a23          	sw	a5,-44(s0)
   10664:	fd842583          	lw	a1,-40(s0)
   10668:	fec42503          	lw	a0,-20(s0)
   1066c:	4d0000ef          	jal	ra,10b3c <__mulsi3>
   10670:	00050793          	mv	a5,a0
   10674:	fcf42823          	sw	a5,-48(s0)
   10678:	fd442783          	lw	a5,-44(s0)
   1067c:	4087d793          	srai	a5,a5,0x8
   10680:	fcf42623          	sw	a5,-52(s0)
   10684:	fd042783          	lw	a5,-48(s0)
   10688:	4087d793          	srai	a5,a5,0x8
   1068c:	fcf42423          	sw	a5,-56(s0)
   10690:	fff00793          	li	a5,-1
   10694:	fef42223          	sw	a5,-28(s0)
   10698:	1480006f          	j	107e0 <bicubicResizeInt+0x224>
   1069c:	fff00793          	li	a5,-1
   106a0:	fef42023          	sw	a5,-32(s0)
   106a4:	1240006f          	j	107c8 <bicubicResizeInt+0x20c>
   106a8:	fcc42703          	lw	a4,-52(s0)
   106ac:	fe042783          	lw	a5,-32(s0)
   106b0:	00f70733          	add	a4,a4,a5
   106b4:	f5442783          	lw	a5,-172(s0)
   106b8:	00f707b3          	add	a5,a4,a5
   106bc:	0207ca63          	bltz	a5,106f0 <bicubicResizeInt+0x134>
   106c0:	fcc42703          	lw	a4,-52(s0)
   106c4:	fe042783          	lw	a5,-32(s0)
   106c8:	00f70733          	add	a4,a4,a5
   106cc:	f5442783          	lw	a5,-172(s0)
   106d0:	00f707b3          	add	a5,a4,a5
   106d4:	00078693          	mv	a3,a5
   106d8:	00442783          	lw	a5,4(s0)
   106dc:	fff78713          	addi	a4,a5,-1
   106e0:	00068793          	mv	a5,a3
   106e4:	00f77863          	bleu	a5,a4,106f4 <bicubicResizeInt+0x138>
   106e8:	00070793          	mv	a5,a4
   106ec:	0080006f          	j	106f4 <bicubicResizeInt+0x138>
   106f0:	00000793          	li	a5,0
   106f4:	faf42c23          	sw	a5,-72(s0)
   106f8:	fc842703          	lw	a4,-56(s0)
   106fc:	fe442783          	lw	a5,-28(s0)
   10700:	00f70733          	add	a4,a4,a5
   10704:	f5042783          	lw	a5,-176(s0)
   10708:	00f707b3          	add	a5,a4,a5
   1070c:	0207ca63          	bltz	a5,10740 <bicubicResizeInt+0x184>
   10710:	fc842703          	lw	a4,-56(s0)
   10714:	fe442783          	lw	a5,-28(s0)
   10718:	00f70733          	add	a4,a4,a5
   1071c:	f5042783          	lw	a5,-176(s0)
   10720:	00f707b3          	add	a5,a4,a5
   10724:	00078693          	mv	a3,a5
   10728:	00842783          	lw	a5,8(s0)
   1072c:	fff78713          	addi	a4,a5,-1
   10730:	00068793          	mv	a5,a3
   10734:	00f77863          	bleu	a5,a4,10744 <bicubicResizeInt+0x188>
   10738:	00070793          	mv	a5,a4
   1073c:	0080006f          	j	10744 <bicubicResizeInt+0x188>
   10740:	00000793          	li	a5,0
   10744:	faf42a23          	sw	a5,-76(s0)
   10748:	fb442783          	lw	a5,-76(s0)
   1074c:	00442583          	lw	a1,4(s0)
   10750:	00078513          	mv	a0,a5
   10754:	3e8000ef          	jal	ra,10b3c <__mulsi3>
   10758:	00050793          	mv	a5,a0
   1075c:	00078713          	mv	a4,a5
   10760:	fb842783          	lw	a5,-72(s0)
   10764:	00f70733          	add	a4,a4,a5
   10768:	00070793          	mv	a5,a4
   1076c:	00179793          	slli	a5,a5,0x1
   10770:	00e787b3          	add	a5,a5,a4
   10774:	faf42823          	sw	a5,-80(s0)
   10778:	fb042703          	lw	a4,-80(s0)
   1077c:	00042783          	lw	a5,0(s0)
   10780:	00f707b3          	add	a5,a4,a5
   10784:	00078713          	mv	a4,a5
   10788:	f6c42783          	lw	a5,-148(s0)
   1078c:	00e787b3          	add	a5,a5,a4
   10790:	0007c683          	lbu	a3,0(a5)
   10794:	fe442783          	lw	a5,-28(s0)
   10798:	00178713          	addi	a4,a5,1
   1079c:	fe042783          	lw	a5,-32(s0)
   107a0:	00178793          	addi	a5,a5,1
   107a4:	00271713          	slli	a4,a4,0x2
   107a8:	00f70733          	add	a4,a4,a5
   107ac:	f7040793          	addi	a5,s0,-144
   107b0:	00271713          	slli	a4,a4,0x2
   107b4:	00f707b3          	add	a5,a4,a5
   107b8:	00d7a023          	sw	a3,0(a5)
   107bc:	fe042783          	lw	a5,-32(s0)
   107c0:	00178793          	addi	a5,a5,1
   107c4:	fef42023          	sw	a5,-32(s0)
   107c8:	fe042703          	lw	a4,-32(s0)
   107cc:	00200793          	li	a5,2
   107d0:	ece7dce3          	ble	a4,a5,106a8 <bicubicResizeInt+0xec>
   107d4:	fe442783          	lw	a5,-28(s0)
   107d8:	00178793          	addi	a5,a5,1
   107dc:	fef42223          	sw	a5,-28(s0)
   107e0:	fe442703          	lw	a4,-28(s0)
   107e4:	00200793          	li	a5,2
   107e8:	eae7dae3          	ble	a4,a5,1069c <bicubicResizeInt+0xe0>
   107ec:	fd442783          	lw	a5,-44(s0)
   107f0:	0ff7f793          	andi	a5,a5,255
   107f4:	fcf42223          	sw	a5,-60(s0)
   107f8:	fd042783          	lw	a5,-48(s0)
   107fc:	0ff7f793          	andi	a5,a5,255
   10800:	fcf42023          	sw	a5,-64(s0)
   10804:	f7040793          	addi	a5,s0,-144
   10808:	fc042603          	lw	a2,-64(s0)
   1080c:	fc442583          	lw	a1,-60(s0)
   10810:	00078513          	mv	a0,a5
   10814:	b81ff0ef          	jal	ra,10394 <bicubicInterpolateInt>
   10818:	faa42e23          	sw	a0,-68(s0)
   1081c:	fbc42783          	lw	a5,-68(s0)
   10820:	0207c263          	bltz	a5,10844 <bicubicResizeInt+0x288>
   10824:	fbc42703          	lw	a4,-68(s0)
   10828:	0ff00793          	li	a5,255
   1082c:	00e7c863          	blt	a5,a4,1083c <bicubicResizeInt+0x280>
   10830:	fbc42783          	lw	a5,-68(s0)
   10834:	0ff7f493          	andi	s1,a5,255
   10838:	0100006f          	j	10848 <bicubicResizeInt+0x28c>
   1083c:	0ff00493          	li	s1,255
   10840:	0080006f          	j	10848 <bicubicResizeInt+0x28c>
   10844:	00000493          	li	s1,0
   10848:	f5c42583          	lw	a1,-164(s0)
   1084c:	fec42503          	lw	a0,-20(s0)
   10850:	2ec000ef          	jal	ra,10b3c <__mulsi3>
   10854:	00050793          	mv	a5,a0
   10858:	00078713          	mv	a4,a5
   1085c:	fe842783          	lw	a5,-24(s0)
   10860:	00f70733          	add	a4,a4,a5
   10864:	00070793          	mv	a5,a4
   10868:	00179793          	slli	a5,a5,0x1
   1086c:	00e78733          	add	a4,a5,a4
   10870:	00042783          	lw	a5,0(s0)
   10874:	00f707b3          	add	a5,a4,a5
   10878:	00078713          	mv	a4,a5
   1087c:	f6042783          	lw	a5,-160(s0)
   10880:	00e787b3          	add	a5,a5,a4
   10884:	00978023          	sb	s1,0(a5)
   10888:	fe842783          	lw	a5,-24(s0)
   1088c:	00178793          	addi	a5,a5,1
   10890:	fef42423          	sw	a5,-24(s0)
   10894:	fe842703          	lw	a4,-24(s0)
   10898:	f5c42783          	lw	a5,-164(s0)
   1089c:	daf74ae3          	blt	a4,a5,10650 <bicubicResizeInt+0x94>
   108a0:	fec42783          	lw	a5,-20(s0)
   108a4:	00178793          	addi	a5,a5,1
   108a8:	fef42623          	sw	a5,-20(s0)
   108ac:	fec42703          	lw	a4,-20(s0)
   108b0:	f5842783          	lw	a5,-168(s0)
   108b4:	d8f74ae3          	blt	a4,a5,10648 <bicubicResizeInt+0x8c>
   108b8:	00000013          	nop
   108bc:	00000013          	nop
   108c0:	0ac12083          	lw	ra,172(sp)
   108c4:	0a812403          	lw	s0,168(sp)
   108c8:	0a412483          	lw	s1,164(sp)
   108cc:	0b010113          	addi	sp,sp,176
   108d0:	00008067          	ret

000108d4 <bicubicResizeRGB>:
   108d4:	fb010113          	addi	sp,sp,-80
   108d8:	04112623          	sw	ra,76(sp)
   108dc:	04812423          	sw	s0,72(sp)
   108e0:	05010413          	addi	s0,sp,80
   108e4:	fca42e23          	sw	a0,-36(s0)
   108e8:	fcb42c23          	sw	a1,-40(s0)
   108ec:	fcc42a23          	sw	a2,-44(s0)
   108f0:	fcd42823          	sw	a3,-48(s0)
   108f4:	fce42623          	sw	a4,-52(s0)
   108f8:	fcf42423          	sw	a5,-56(s0)
   108fc:	fd042223          	sw	a6,-60(s0)
   10900:	fd142023          	sw	a7,-64(s0)
   10904:	fc042783          	lw	a5,-64(s0)
   10908:	00042583          	lw	a1,0(s0)
   1090c:	00078513          	mv	a0,a5
   10910:	22c000ef          	jal	ra,10b3c <__mulsi3>
   10914:	00050793          	mv	a5,a0
   10918:	00078713          	mv	a4,a5
   1091c:	fc442783          	lw	a5,-60(s0)
   10920:	00f70733          	add	a4,a4,a5
   10924:	00070793          	mv	a5,a4
   10928:	00179793          	slli	a5,a5,0x1
   1092c:	00e787b3          	add	a5,a5,a4
   10930:	fdc42703          	lw	a4,-36(s0)
   10934:	00f707b3          	add	a5,a4,a5
   10938:	fef42623          	sw	a5,-20(s0)
   1093c:	00442783          	lw	a5,4(s0)
   10940:	00f12423          	sw	a5,8(sp)
   10944:	00042783          	lw	a5,0(s0)
   10948:	00f12223          	sw	a5,4(sp)
   1094c:	00012023          	sw	zero,0(sp)
   10950:	fc042883          	lw	a7,-64(s0)
   10954:	fc442803          	lw	a6,-60(s0)
   10958:	fc842783          	lw	a5,-56(s0)
   1095c:	fcc42703          	lw	a4,-52(s0)
   10960:	fd042683          	lw	a3,-48(s0)
   10964:	fd442603          	lw	a2,-44(s0)
   10968:	fd842583          	lw	a1,-40(s0)
   1096c:	fec42503          	lw	a0,-20(s0)
   10970:	c4dff0ef          	jal	ra,105bc <bicubicResizeInt>
   10974:	00442783          	lw	a5,4(s0)
   10978:	00f12423          	sw	a5,8(sp)
   1097c:	00042783          	lw	a5,0(s0)
   10980:	00f12223          	sw	a5,4(sp)
   10984:	00100793          	li	a5,1
   10988:	00f12023          	sw	a5,0(sp)
   1098c:	fc042883          	lw	a7,-64(s0)
   10990:	fc442803          	lw	a6,-60(s0)
   10994:	fc842783          	lw	a5,-56(s0)
   10998:	fcc42703          	lw	a4,-52(s0)
   1099c:	fd042683          	lw	a3,-48(s0)
   109a0:	fd442603          	lw	a2,-44(s0)
   109a4:	fd842583          	lw	a1,-40(s0)
   109a8:	fec42503          	lw	a0,-20(s0)
   109ac:	c11ff0ef          	jal	ra,105bc <bicubicResizeInt>
   109b0:	00442783          	lw	a5,4(s0)
   109b4:	00f12423          	sw	a5,8(sp)
   109b8:	00042783          	lw	a5,0(s0)
   109bc:	00f12223          	sw	a5,4(sp)
   109c0:	00200793          	li	a5,2
   109c4:	00f12023          	sw	a5,0(sp)
   109c8:	fc042883          	lw	a7,-64(s0)
   109cc:	fc442803          	lw	a6,-60(s0)
   109d0:	fc842783          	lw	a5,-56(s0)
   109d4:	fcc42703          	lw	a4,-52(s0)
   109d8:	fd042683          	lw	a3,-48(s0)
   109dc:	fd442603          	lw	a2,-44(s0)
   109e0:	fd842583          	lw	a1,-40(s0)
   109e4:	fec42503          	lw	a0,-20(s0)
   109e8:	bd5ff0ef          	jal	ra,105bc <bicubicResizeInt>
   109ec:	00000013          	nop
   109f0:	00000013          	nop
   109f4:	04c12083          	lw	ra,76(sp)
   109f8:	04812403          	lw	s0,72(sp)
   109fc:	05010113          	addi	sp,sp,80
   10a00:	00008067          	ret

00010a04 <main>:
   10a04:	fd010113          	addi	sp,sp,-48
   10a08:	02112623          	sw	ra,44(sp)
   10a0c:	02812423          	sw	s0,40(sp)
   10a10:	03010413          	addi	s0,sp,48
   10a14:	000207b7          	lui	a5,0x20
   10a18:	05678793          	addi	a5,a5,86 # 20056 <_binary_image_bmp_start+0x36>
   10a1c:	fef42623          	sw	a5,-20(s0)
   10a20:	201007b7          	lui	a5,0x20100
   10a24:	00078793          	mv	a5,a5
   10a28:	fef42423          	sw	a5,-24(s0)
   10a2c:	000207b7          	lui	a5,0x20
   10a30:	02078793          	addi	a5,a5,32 # 20020 <_binary_image_bmp_start>
   10a34:	0127c783          	lbu	a5,18(a5)
   10a38:	00078713          	mv	a4,a5
   10a3c:	000207b7          	lui	a5,0x20
   10a40:	02078793          	addi	a5,a5,32 # 20020 <_binary_image_bmp_start>
   10a44:	0137c783          	lbu	a5,19(a5)
   10a48:	00879793          	slli	a5,a5,0x8
   10a4c:	00f76733          	or	a4,a4,a5
   10a50:	000207b7          	lui	a5,0x20
   10a54:	02078793          	addi	a5,a5,32 # 20020 <_binary_image_bmp_start>
   10a58:	0147c783          	lbu	a5,20(a5)
   10a5c:	01079793          	slli	a5,a5,0x10
   10a60:	00f76733          	or	a4,a4,a5
   10a64:	000207b7          	lui	a5,0x20
   10a68:	02078793          	addi	a5,a5,32 # 20020 <_binary_image_bmp_start>
   10a6c:	0157c783          	lbu	a5,21(a5)
   10a70:	01879793          	slli	a5,a5,0x18
   10a74:	00f767b3          	or	a5,a4,a5
   10a78:	fef42223          	sw	a5,-28(s0)
   10a7c:	000207b7          	lui	a5,0x20
   10a80:	02078793          	addi	a5,a5,32 # 20020 <_binary_image_bmp_start>
   10a84:	0167c783          	lbu	a5,22(a5)
   10a88:	00078713          	mv	a4,a5
   10a8c:	000207b7          	lui	a5,0x20
   10a90:	02078793          	addi	a5,a5,32 # 20020 <_binary_image_bmp_start>
   10a94:	0177c783          	lbu	a5,23(a5)
   10a98:	00879793          	slli	a5,a5,0x8
   10a9c:	00f76733          	or	a4,a4,a5
   10aa0:	000207b7          	lui	a5,0x20
   10aa4:	02078793          	addi	a5,a5,32 # 20020 <_binary_image_bmp_start>
   10aa8:	0187c783          	lbu	a5,24(a5)
   10aac:	01079793          	slli	a5,a5,0x10
   10ab0:	00f76733          	or	a4,a4,a5
   10ab4:	000207b7          	lui	a5,0x20
   10ab8:	02078793          	addi	a5,a5,32 # 20020 <_binary_image_bmp_start>
   10abc:	0197c783          	lbu	a5,25(a5)
   10ac0:	01879793          	slli	a5,a5,0x18
   10ac4:	00f767b3          	or	a5,a4,a5
   10ac8:	fef42023          	sw	a5,-32(s0)
   10acc:	000207b7          	lui	a5,0x20
   10ad0:	0107a583          	lw	a1,16(a5) # 20010 <_srcWidth>
   10ad4:	000207b7          	lui	a5,0x20
   10ad8:	0147a603          	lw	a2,20(a5) # 20014 <_srcHeight>
   10adc:	000207b7          	lui	a5,0x20
   10ae0:	0187a703          	lw	a4,24(a5) # 20018 <_dstWidth>
   10ae4:	000207b7          	lui	a5,0x20
   10ae8:	01c7a683          	lw	a3,28(a5) # 2001c <_dstHeight>
   10aec:	000207b7          	lui	a5,0x20
   10af0:	0087a503          	lw	a0,8(a5) # 20008 <__sdata_end>
   10af4:	000207b7          	lui	a5,0x20
   10af8:	00c7a803          	lw	a6,12(a5) # 2000c <_H0>
   10afc:	fe042783          	lw	a5,-32(s0)
   10b00:	00f12223          	sw	a5,4(sp)
   10b04:	fe442783          	lw	a5,-28(s0)
   10b08:	00f12023          	sw	a5,0(sp)
   10b0c:	00080893          	mv	a7,a6
   10b10:	00050813          	mv	a6,a0
   10b14:	00068793          	mv	a5,a3
   10b18:	fe842683          	lw	a3,-24(s0)
   10b1c:	fec42503          	lw	a0,-20(s0)
   10b20:	db5ff0ef          	jal	ra,108d4 <bicubicResizeRGB>
   10b24:	00000793          	li	a5,0
   10b28:	00078513          	mv	a0,a5
   10b2c:	02c12083          	lw	ra,44(sp)
   10b30:	02812403          	lw	s0,40(sp)
   10b34:	03010113          	addi	sp,sp,48
   10b38:	00008067          	ret

00010b3c <__mulsi3>:
   10b3c:	00050613          	mv	a2,a0
   10b40:	00000513          	li	a0,0
   10b44:	0015f693          	andi	a3,a1,1
   10b48:	00068463          	beqz	a3,10b50 <__mulsi3+0x14>
   10b4c:	00c50533          	add	a0,a0,a2
   10b50:	0015d593          	srli	a1,a1,0x1
   10b54:	00161613          	slli	a2,a2,0x1
   10b58:	fe0596e3          	bnez	a1,10b44 <__mulsi3+0x8>
   10b5c:	00008067          	ret

00010b60 <__divsi3>:
   10b60:	06054063          	bltz	a0,10bc0 <__umodsi3+0x10>
   10b64:	0605c663          	bltz	a1,10bd0 <__umodsi3+0x20>

00010b68 <__hidden___udivsi3>:
   10b68:	00058613          	mv	a2,a1
   10b6c:	00050593          	mv	a1,a0
   10b70:	fff00513          	li	a0,-1
   10b74:	02060c63          	beqz	a2,10bac <__hidden___udivsi3+0x44>
   10b78:	00100693          	li	a3,1
   10b7c:	00b67a63          	bleu	a1,a2,10b90 <__hidden___udivsi3+0x28>
   10b80:	00c05863          	blez	a2,10b90 <__hidden___udivsi3+0x28>
   10b84:	00161613          	slli	a2,a2,0x1
   10b88:	00169693          	slli	a3,a3,0x1
   10b8c:	feb66ae3          	bltu	a2,a1,10b80 <__hidden___udivsi3+0x18>
   10b90:	00000513          	li	a0,0
   10b94:	00c5e663          	bltu	a1,a2,10ba0 <__hidden___udivsi3+0x38>
   10b98:	40c585b3          	sub	a1,a1,a2
   10b9c:	00d56533          	or	a0,a0,a3
   10ba0:	0016d693          	srli	a3,a3,0x1
   10ba4:	00165613          	srli	a2,a2,0x1
   10ba8:	fe0696e3          	bnez	a3,10b94 <__hidden___udivsi3+0x2c>
   10bac:	00008067          	ret

00010bb0 <__umodsi3>:
   10bb0:	00008293          	mv	t0,ra
   10bb4:	fb5ff0ef          	jal	ra,10b68 <__hidden___udivsi3>
   10bb8:	00058513          	mv	a0,a1
   10bbc:	00028067          	jr	t0
   10bc0:	40a00533          	neg	a0,a0
   10bc4:	00b04863          	bgtz	a1,10bd4 <__umodsi3+0x24>
   10bc8:	40b005b3          	neg	a1,a1
   10bcc:	f9dff06f          	j	10b68 <__hidden___udivsi3>
   10bd0:	40b005b3          	neg	a1,a1
   10bd4:	00008293          	mv	t0,ra
   10bd8:	f91ff0ef          	jal	ra,10b68 <__hidden___udivsi3>
   10bdc:	40a00533          	neg	a0,a0
   10be0:	00028067          	jr	t0

00010be4 <__modsi3>:
   10be4:	00008293          	mv	t0,ra
   10be8:	0005ca63          	bltz	a1,10bfc <__modsi3+0x18>
   10bec:	00054c63          	bltz	a0,10c04 <__modsi3+0x20>
   10bf0:	f79ff0ef          	jal	ra,10b68 <__hidden___udivsi3>
   10bf4:	00058513          	mv	a0,a1
   10bf8:	00028067          	jr	t0
   10bfc:	40b005b3          	neg	a1,a1
   10c00:	fe0558e3          	bgez	a0,10bf0 <__modsi3+0xc>
   10c04:	40a00533          	neg	a0,a0
   10c08:	f61ff0ef          	jal	ra,10b68 <__hidden___udivsi3>
   10c0c:	40b00533          	neg	a0,a1
   10c10:	00028067          	jr	t0
